---
triple:          'arm64-apple-darwin'
binary-path:     "/Users/jojaemin/Desktop/UNIST/2025 1학기/알고리즘/Homework_2/main_"
relocations:
  - { offset: 0x13D28, size: 0x8, addend: 0x0, symName: __ZStL8__ioinit, symObjAddr: 0x90F0A, symBinAddr: 0x100018000, symSize: 0x0 }
  - { offset: 0x13FFB, size: 0x8, addend: 0x0, symName: _vertexes, symObjAddr: 0x90F10, symBinAddr: 0x100018008, symSize: 0x0 }
  - { offset: 0x14011, size: 0x8, addend: 0x0, symName: _answer, symObjAddr: 0x90F28, symBinAddr: 0x100018020, symSize: 0x0 }
  - { offset: 0x1402D, size: 0x8, addend: 0x0, symName: _mst_sum, symObjAddr: 0x90F40, symBinAddr: 0x100018038, symSize: 0x0 }
  - { offset: 0x14043, size: 0x8, addend: 0x0, symName: _mst_cnt, symObjAddr: 0x90F44, symBinAddr: 0x10001803C, symSize: 0x0 }
  - { offset: 0x14509, size: 0x8, addend: 0x0, symName: __Z5graphB5cxx11, symObjAddr: 0x90F48, symBinAddr: 0x100018040, symSize: 0x0 }
  - { offset: 0x1451F, size: 0x8, addend: 0x0, symName: _euler_circuit, symObjAddr: 0x90F80, symBinAddr: 0x100018078, symSize: 0x0 }
  - { offset: 0x14792, size: 0x8, addend: 0x0, symName: _answer_dis, symObjAddr: 0x90F98, symBinAddr: 0x100018090, symSize: 0x0 }
  - { offset: 0x14B50, size: 0x8, addend: 0x0, symName: __ZNSt6vectorI6VertexSaIS0_EED1Ev, symObjAddr: 0x906C, symBinAddr: 0x10000BC94, symSize: 0x5C }
  - { offset: 0x14BD3, size: 0x8, addend: 0x0, symName: __ZNSt13unordered_mapIiNSt7__cxx114listIiSaIiEEESt4hashIiESt8equal_toIiESaISt4pairIKiS3_EEED1Ev, symObjAddr: 0x904C, symBinAddr: 0x10000BC74, symSize: 0x20 }
  - { offset: 0x14BF5, size: 0x8, addend: 0x0, symName: __ZNSt10_Head_baseILm0ERKiLb0EE7_M_headERS2_, symObjAddr: 0x9034, symBinAddr: 0x10000BC5C, symSize: 0x18 }
  - { offset: 0x14C1E, size: 0x8, addend: 0x0, symName: __ZNSt11__copy_moveILb0ELb0ESt26random_access_iterator_tagE12__assign_oneIPiS3_EEvPT_PT0_, symObjAddr: 0x900C, symBinAddr: 0x10000BC34, symSize: 0x28 }
  - { offset: 0x14C6B, size: 0x8, addend: 0x0, symName: __ZNSt11_Tuple_implILm0EJRKiEE7_M_headERS2_, symObjAddr: 0x8FF0, symBinAddr: 0x10000BC18, symSize: 0x1C }
  - { offset: 0x14C95, size: 0x8, addend: 0x0, symName: __ZNSt20__copy_move_backwardILb0ELb1ESt26random_access_iterator_tagE13__copy_move_bIPiS3_EEPT0_PT_S7_S5_, symObjAddr: 0x8F44, symBinAddr: 0x10000BB6C, symSize: 0xAC }
  - { offset: 0x14D04, size: 0x8, addend: 0x0, symName: __ZNSt11__copy_moveILb0ELb1ESt26random_access_iterator_tagE8__copy_mIPiS3_EEPT0_PT_S7_S5_, symObjAddr: 0x8EB4, symBinAddr: 0x10000BADC, symSize: 0x90 }
  - { offset: 0x14D89, size: 0x8, addend: 0x0, symName: __ZSt12__get_helperILm0ERKiJEERT0_RSt11_Tuple_implIXT_EJS2_DpT1_EE, symObjAddr: 0x8E98, symBinAddr: 0x10000BAC0, symSize: 0x1C }
  - { offset: 0x14DCB, size: 0x8, addend: 0x0, symName: __ZNSt11__copy_moveILb0ELb0ESt26random_access_iterator_tagE12__assign_oneIiKiEEvPT_PT0_, symObjAddr: 0x8E70, symBinAddr: 0x10000BA98, symSize: 0x28 }
  - { offset: 0x14E43, size: 0x8, addend: 0x0, symName: __ZNSt12_Vector_baseIiSaIiEE17_Vector_impl_dataC2EOS2_, symObjAddr: 0x8E00, symBinAddr: 0x10000BA28, symSize: 0x70 }
  - { offset: 0x14E7A, size: 0x8, addend: 0x0, symName: __ZSt4moveIRNSt12_Vector_baseIiSaIiEE12_Vector_implEEONSt16remove_referenceIT_E4typeEOS6_, symObjAddr: 0x8DEC, symBinAddr: 0x10000BA14, symSize: 0x14 }
  - { offset: 0x14EAC, size: 0x8, addend: 0x0, symName: __ZSt23__copy_move_backward_a2ILb0EPPiS1_ET1_T0_S3_S2_, symObjAddr: 0x8DC0, symBinAddr: 0x10000B9E8, symSize: 0x2C }
  - { offset: 0x14F14, size: 0x8, addend: 0x0, symName: __ZSt14__copy_move_a2ILb0EPPiS1_ET1_T0_S3_S2_, symObjAddr: 0x8D94, symBinAddr: 0x10000B9BC, symSize: 0x2C }
  - { offset: 0x14F84, size: 0x8, addend: 0x0, symName: __ZNK9__gnu_cxx16__aligned_bufferISt4pairIKiNSt7__cxx114listIiSaIiEEEEE7_M_addrEv, symObjAddr: 0x8D80, symBinAddr: 0x10000B9A8, symSize: 0x14 }
  - { offset: 0x14FC8, size: 0x8, addend: 0x0, symName: __ZNSt7__cxx1110_List_baseIiSaIiEE10_List_implC1Ev, symObjAddr: 0x8D48, symBinAddr: 0x10000B970, symSize: 0x38 }
  - { offset: 0x15031, size: 0x8, addend: 0x0, symName: __ZSt3getILm0EJRKiEERNSt13tuple_elementIXT_ESt5tupleIJDpT0_EEE4typeERS6_, symObjAddr: 0x8D2C, symBinAddr: 0x10000B954, symSize: 0x1C }
  - { offset: 0x15070, size: 0x8, addend: 0x0, symName: __ZNSt11__copy_moveILb0ELb1ESt26random_access_iterator_tagE8__copy_mIKiiEEPT0_PT_S7_S5_, symObjAddr: 0x8C9C, symBinAddr: 0x10000B8C4, symSize: 0x90 }
  - { offset: 0x1510A, size: 0x8, addend: 0x0, symName: __ZNSt12_Vector_baseIiSaIiEE12_Vector_implC1EOS2_, symObjAddr: 0x8C30, symBinAddr: 0x10000B858, symSize: 0x6C }
  - { offset: 0x1518D, size: 0x8, addend: 0x0, symName: __ZSt23__copy_move_backward_a1ILb0EPPiS1_ET1_T0_S3_S2_, symObjAddr: 0x8C04, symBinAddr: 0x10000B82C, symSize: 0x2C }
  - { offset: 0x151F5, size: 0x8, addend: 0x0, symName: __ZSt12__niter_wrapIPPiET_RKS2_S2_, symObjAddr: 0x8BEC, symBinAddr: 0x10000B814, symSize: 0x18 }
  - { offset: 0x15231, size: 0x8, addend: 0x0, symName: __ZSt14__copy_move_a1ILb0EPPiS1_ET1_T0_S3_S2_, symObjAddr: 0x8BC0, symBinAddr: 0x10000B7E8, symSize: 0x2C }
  - { offset: 0x15299, size: 0x8, addend: 0x0, symName: __ZSt12__niter_baseIPPiET_S2_, symObjAddr: 0x8BAC, symBinAddr: 0x10000B7D4, symSize: 0x14 }
  - { offset: 0x152D0, size: 0x8, addend: 0x0, symName: __ZNSt15__new_allocatorISt10_List_nodeIiEE8allocateEmPKv, symObjAddr: 0x8B1C, symBinAddr: 0x10000B744, symSize: 0x90 }
  - { offset: 0x1535C, size: 0x8, addend: 0x0, symName: __ZNK9__gnu_cxx16__aligned_bufferISt4pairIKiNSt7__cxx114listIiSaIiEEEEE6_M_ptrEv, symObjAddr: 0x8B00, symBinAddr: 0x10000B728, symSize: 0x1C }
  - { offset: 0x15386, size: 0x8, addend: 0x0, symName: __ZNSt15__new_allocatorIPNSt8__detail15_Hash_node_baseEE8allocateEmPKv, symObjAddr: 0x8A84, symBinAddr: 0x10000B6AC, symSize: 0x7C }
  - { offset: 0x1547B, size: 0x8, addend: 0x0, symName: __ZNSt4pairIKiNSt7__cxx114listIiSaIiEEEEC1IJRS0_EJLm0EEJEJEEERSt5tupleIJDpT_EERS8_IJDpT1_EESt12_Index_tupleIJXspT0_EEESH_IJXspT2_EEE, symObjAddr: 0x8A28, symBinAddr: 0x10000B650, symSize: 0x5C }
  - { offset: 0x15508, size: 0x8, addend: 0x0, symName: __ZNSt7__cxx114listIiSaIiEEC1Ev, symObjAddr: 0x8A08, symBinAddr: 0x10000B630, symSize: 0x20 }
  - { offset: 0x15548, size: 0x8, addend: 0x0, symName: __ZNSt7__cxx1110_List_baseIiSaIiEEC2Ev, symObjAddr: 0x89E8, symBinAddr: 0x10000B610, symSize: 0x20 }
  - { offset: 0x1556E, size: 0x8, addend: 0x0, symName: __ZNKSt8__detail21_Hashtable_ebo_helperILi0ESt8equal_toIiELb1EE7_M_cgetEv, symObjAddr: 0x89D4, symBinAddr: 0x10000B5FC, symSize: 0x14 }
  - { offset: 0x15594, size: 0x8, addend: 0x0, symName: __ZSt11__addressofINSt8__detail10_Hash_nodeISt4pairIKiNSt7__cxx114listIiSaIiEEEELb0EEEEPT_RSA_, symObjAddr: 0x89C0, symBinAddr: 0x10000B5E8, symSize: 0x14 }
  - { offset: 0x155C6, size: 0x8, addend: 0x0, symName: __ZSt14__copy_move_a2ILb0EPKiPiET1_T0_S4_S3_, symObjAddr: 0x8994, symBinAddr: 0x10000B5BC, symSize: 0x2C }
  - { offset: 0x15632, size: 0x8, addend: 0x0, symName: __ZNK9__gnu_cxx17__normal_iteratorIPKiSt6vectorIiSaIiEEE4baseEv, symObjAddr: 0x8980, symBinAddr: 0x10000B5A8, symSize: 0x14 }
  - { offset: 0x156EC, size: 0x8, addend: 0x0, symName: __ZN6VertexC1EOS_, symObjAddr: 0x8928, symBinAddr: 0x10000B550, symSize: 0x58 }
  - { offset: 0x1573A, size: 0x8, addend: 0x0, symName: __ZNSt6vectorIiSaIiEEC1EOS1_, symObjAddr: 0x8900, symBinAddr: 0x10000B528, symSize: 0x28 }
  - { offset: 0x15788, size: 0x8, addend: 0x0, symName: __ZNSt12_Vector_baseIiSaIiEEC2EOS1_, symObjAddr: 0x88D8, symBinAddr: 0x10000B500, symSize: 0x28 }
  - { offset: 0x157B9, size: 0x8, addend: 0x0, symName: __ZSt7forwardI6VertexEOT_RNSt16remove_referenceIS1_E4typeE, symObjAddr: 0x88C4, symBinAddr: 0x10000B4EC, symSize: 0x14 }
  - { offset: 0x157EB, size: 0x8, addend: 0x0, symName: __ZSt22__copy_move_backward_aILb0EPPiS1_ET1_T0_S3_S2_, symObjAddr: 0x8864, symBinAddr: 0x10000B48C, symSize: 0x60 }
  - { offset: 0x15853, size: 0x8, addend: 0x0, symName: __ZSt13__copy_move_aILb0EPPiS1_ET1_T0_S3_S2_, symObjAddr: 0x8804, symBinAddr: 0x10000B42C, symSize: 0x60 }
  - { offset: 0x158BB, size: 0x8, addend: 0x0, symName: __ZSt12__miter_baseIPPiET_S2_, symObjAddr: 0x87F0, symBinAddr: 0x10000B418, symSize: 0x14 }
  - { offset: 0x15930, size: 0x8, addend: 0x0, symName: __ZSt11__addressofISaISt10_List_nodeIiEEEPT_RS3_, symObjAddr: 0x87DC, symBinAddr: 0x10000B404, symSize: 0x14 }
  - { offset: 0x1598C, size: 0x8, addend: 0x0, symName: __ZSt7forwardIRKSt4pairIKiNSt7__cxx114listIiSaIiEEEEEOT_RNSt16remove_referenceIS9_E4typeE, symObjAddr: 0x87C8, symBinAddr: 0x10000B3F0, symSize: 0x14 }
  - { offset: 0x159D4, size: 0x8, addend: 0x0, symName: __ZSt12__to_addressIPNSt8__detail15_Hash_node_baseEEPT_S4_, symObjAddr: 0x87B4, symBinAddr: 0x10000B3DC, symSize: 0x14 }
  - { offset: 0x15A79, size: 0x8, addend: 0x0, symName: __ZNSt4pairIKiNSt7__cxx114listIiSaIiEEEEC1IJRS0_EJEEESt21piecewise_construct_tSt5tupleIJDpT_EES9_IJDpT0_EE, symObjAddr: 0x8778, symBinAddr: 0x10000B3A0, symSize: 0x3C }
  - { offset: 0x15AF3, size: 0x8, addend: 0x0, symName: __ZNSt11_Tuple_implILm0EJRKiEEC2EOS2_, symObjAddr: 0x8750, symBinAddr: 0x10000B378, symSize: 0x28 }
  - { offset: 0x15B22, size: 0x8, addend: 0x0, symName: __ZNKSt8equal_toIiEclERKiS2_, symObjAddr: 0x871C, symBinAddr: 0x10000B344, symSize: 0x34 }
  - { offset: 0x15B6E, size: 0x8, addend: 0x0, symName: __ZNKSt8__detail15_Hashtable_baseIiSt4pairIKiNSt7__cxx114listIiSaIiEEEENS_10_Select1stESt8equal_toIiESt4hashIiENS_18_Mod_range_hashingENS_20_Default_ranged_hashENS_17_Hashtable_traitsILb0ELb0ELb1EEEE5_M_eqEv, symObjAddr: 0x8700, symBinAddr: 0x10000B328, symSize: 0x1C }
  - { offset: 0x15B94, size: 0x8, addend: 0x0, symName: __ZSt11__addressofIPNSt8__detail15_Hash_node_baseEEPT_RS3_, symObjAddr: 0x86EC, symBinAddr: 0x10000B314, symSize: 0x14 }
  - { offset: 0x15BC6, size: 0x8, addend: 0x0, symName: __ZSt9addressofINSt8__detail10_Hash_nodeISt4pairIKiNSt7__cxx114listIiSaIiEEEELb0EEEEPT_RSA_, symObjAddr: 0x86D0, symBinAddr: 0x10000B2F8, symSize: 0x1C }
  - { offset: 0x15C0E, size: 0x8, addend: 0x0, symName: __ZSt12__niter_wrapIPiET_RKS1_S1_, symObjAddr: 0x86B8, symBinAddr: 0x10000B2E0, symSize: 0x18 }
  - { offset: 0x15C4A, size: 0x8, addend: 0x0, symName: __ZSt14__copy_move_a1ILb0EPKiPiET1_T0_S4_S3_, symObjAddr: 0x868C, symBinAddr: 0x10000B2B4, symSize: 0x2C }
  - { offset: 0x15CB2, size: 0x8, addend: 0x0, symName: __ZSt12__niter_baseIPKiSt6vectorIiSaIiEEET_N9__gnu_cxx17__normal_iteratorIS5_T0_EE, symObjAddr: 0x866C, symBinAddr: 0x10000B294, symSize: 0x20 }
  - { offset: 0x15D1E, size: 0x8, addend: 0x0, symName: __ZNSt4pairIiiEC1IiiLb1EEEv, symObjAddr: 0x8648, symBinAddr: 0x10000B270, symSize: 0x24 }
  - { offset: 0x15DC9, size: 0x8, addend: 0x0, symName: __ZSt4moveIR6VertexEONSt16remove_referenceIT_E4typeEOS3_, symObjAddr: 0x8634, symBinAddr: 0x10000B25C, symSize: 0x14 }
  - { offset: 0x15DFB, size: 0x8, addend: 0x0, symName: __ZSt13copy_backwardIPPiS1_ET0_T_S3_S2_, symObjAddr: 0x85EC, symBinAddr: 0x10000B214, symSize: 0x48 }
  - { offset: 0x15E59, size: 0x8, addend: 0x0, symName: __ZSt4copyIPPiS1_ET0_T_S3_S2_, symObjAddr: 0x85A4, symBinAddr: 0x10000B1CC, symSize: 0x48 }
  - { offset: 0x15ED1, size: 0x8, addend: 0x0, symName: __ZNSt15__new_allocatorIPiE8allocateEmPKv, symObjAddr: 0x8528, symBinAddr: 0x10000B150, symSize: 0x7C }
  - { offset: 0x15F5D, size: 0x8, addend: 0x0, symName: __ZNSt15__allocated_ptrISaISt10_List_nodeIiEEEaSEDn, symObjAddr: 0x8508, symBinAddr: 0x10000B130, symSize: 0x20 }
  - { offset: 0x15FF8, size: 0x8, addend: 0x0, symName: __ZNSt15__allocated_ptrISaISt10_List_nodeIiEEED1Ev, symObjAddr: 0x84AC, symBinAddr: 0x10000B0D4, symSize: 0x5C }
  - { offset: 0x16087, size: 0x8, addend: 0x0, symName: __ZNSt15__allocated_ptrISaISt10_List_nodeIiEEEC1ERS2_PS1_, symObjAddr: 0x846C, symBinAddr: 0x10000B094, symSize: 0x40 }
  - { offset: 0x160BF, size: 0x8, addend: 0x0, symName: __ZNSt7__cxx1110_List_baseIiSaIiEE11_M_get_nodeEv, symObjAddr: 0x8434, symBinAddr: 0x10000B05C, symSize: 0x38 }
  - { offset: 0x16121, size: 0x8, addend: 0x0, symName: __ZNKSt8__detail10_Select1stclIRKSt4pairIKiNSt7__cxx114listIiSaIiEEEEEEONS0_10__1st_typeIT_E4typeEOSC_, symObjAddr: 0x8414, symBinAddr: 0x10000B03C, symSize: 0x20 }
  - { offset: 0x1617A, size: 0x8, addend: 0x0, symName: __ZNSt8__detail16_Hashtable_allocISaINS_10_Hash_nodeISt4pairIKiNSt7__cxx114listIiSaIiEEEELb0EEEEE19_M_allocate_bucketsEm, symObjAddr: 0x8364, symBinAddr: 0x10000AF8C, symSize: 0xB0 }
  - { offset: 0x162A1, size: 0x8, addend: 0x0, symName: __ZNSt15__new_allocatorINSt8__detail10_Hash_nodeISt4pairIKiNSt7__cxx114listIiSaIiEEEELb0EEEE10deallocateEPS9_m, symObjAddr: 0x8328, symBinAddr: 0x10000AF50, symSize: 0x3C }
  - { offset: 0x1636C, size: 0x8, addend: 0x0, symName: __ZNSt5tupleIJRKiEEC1EOS2_, symObjAddr: 0x8300, symBinAddr: 0x10000AF28, symSize: 0x28 }
  - { offset: 0x1639B, size: 0x8, addend: 0x0, symName: __ZNSt15__new_allocatorINSt8__detail10_Hash_nodeISt4pairIKiNSt7__cxx114listIiSaIiEEEELb0EEEE8allocateEmPKv, symObjAddr: 0x8270, symBinAddr: 0x10000AE98, symSize: 0x90 }
  - { offset: 0x1642B, size: 0x8, addend: 0x0, symName: __ZN9__gnu_cxx16__aligned_bufferISt4pairIKiNSt7__cxx114listIiSaIiEEEEE7_M_addrEv, symObjAddr: 0x825C, symBinAddr: 0x10000AE84, symSize: 0x14 }
  - { offset: 0x16455, size: 0x8, addend: 0x0, symName: __ZNKSt8__detail15_Hashtable_baseIiSt4pairIKiNSt7__cxx114listIiSaIiEEEENS_10_Select1stESt8equal_toIiESt4hashIiENS_18_Mod_range_hashingENS_20_Default_ranged_hashENS_17_Hashtable_traitsILb0ELb0ELb1EEEE13_M_key_equalsERS2_RKNS_16_Hash_node_valueIS7_Lb0EEE, symObjAddr: 0x81F0, symBinAddr: 0x10000AE18, symSize: 0x6C }
  - { offset: 0x164E5, size: 0x8, addend: 0x0, symName: __ZNSt8__detail15_Hashtable_baseIiSt4pairIKiNSt7__cxx114listIiSaIiEEEENS_10_Select1stESt8equal_toIiESt4hashIiENS_18_Mod_range_hashingENS_20_Default_ranged_hashENS_17_Hashtable_traitsILb0ELb0ELb1EEEE9_S_equalsEmRKNS_21_Hash_node_code_cacheILb0EEE, symObjAddr: 0x81D8, symBinAddr: 0x10000AE00, symSize: 0x18 }
  - { offset: 0x16514, size: 0x8, addend: 0x0, symName: __ZNSt15__new_allocatorIPNSt8__detail15_Hash_node_baseEE10deallocateEPS2_m, symObjAddr: 0x81A8, symBinAddr: 0x10000ADD0, symSize: 0x30 }
  - { offset: 0x16582, size: 0x8, addend: 0x0, symName: __ZNSt15__new_allocatorIPNSt8__detail15_Hash_node_baseEED2Ev, symObjAddr: 0x8194, symBinAddr: 0x10000ADBC, symSize: 0x14 }
  - { offset: 0x165BA, size: 0x8, addend: 0x0, symName: __ZSt9addressofIPNSt8__detail15_Hash_node_baseEEPT_RS3_, symObjAddr: 0x8178, symBinAddr: 0x10000ADA0, symSize: 0x1C }
  - { offset: 0x165EC, size: 0x8, addend: 0x0, symName: __ZNSt19__ptr_traits_ptr_toIPNSt8__detail10_Hash_nodeISt4pairIKiNSt7__cxx114listIiSaIiEEEELb0EEES9_Lb0EE10pointer_toERS9_, symObjAddr: 0x815C, symBinAddr: 0x10000AD84, symSize: 0x1C }
  - { offset: 0x1666D, size: 0x8, addend: 0x0, symName: __ZNSt4pairIKiNSt7__cxx114listIiSaIiEEEED1Ev, symObjAddr: 0x8138, symBinAddr: 0x10000AD60, symSize: 0x24 }
  - { offset: 0x16693, size: 0x8, addend: 0x0, symName: __ZNSt8__detail21_Hashtable_ebo_helperILi0ESaINS_10_Hash_nodeISt4pairIKiNSt7__cxx114listIiSaIiEEEELb0EEEELb1EE6_M_getEv, symObjAddr: 0x8124, symBinAddr: 0x10000AD4C, symSize: 0x14 }
  - { offset: 0x166CF, size: 0x8, addend: 0x0, symName: __ZSt13__copy_move_aILb0EN9__gnu_cxx17__normal_iteratorIPKiSt6vectorIiSaIiEEEEPiET1_T0_SA_S9_, symObjAddr: 0x80C4, symBinAddr: 0x10000ACEC, symSize: 0x60 }
  - { offset: 0x16737, size: 0x8, addend: 0x0, symName: __ZSt12__miter_baseIN9__gnu_cxx17__normal_iteratorIPKiSt6vectorIiSaIiEEEEET_S8_, symObjAddr: 0x80B0, symBinAddr: 0x10000ACD8, symSize: 0x14 }
  - { offset: 0x1676A, size: 0x8, addend: 0x0, symName: __ZSt10_ConstructISt4pairIiiEJEEvPT_DpOT0_, symObjAddr: 0x8084, symBinAddr: 0x10000ACAC, symSize: 0x2C }
  - { offset: 0x167A6, size: 0x8, addend: 0x0, symName: __ZSt11__addressofISt4pairIiiEEPT_RS2_, symObjAddr: 0x8070, symBinAddr: 0x10000AC98, symSize: 0x14 }
  - { offset: 0x167DC, size: 0x8, addend: 0x0, symName: __ZNSt15__new_allocatorISt4pairIiiEE8allocateEmPKv, symObjAddr: 0x7FF4, symBinAddr: 0x10000AC1C, symSize: 0x7C }
  - { offset: 0x16864, size: 0x8, addend: 0x0, symName: __ZSt8_DestroyI6VertexEvPT_, symObjAddr: 0x7FD4, symBinAddr: 0x10000ABFC, symSize: 0x20 }
  - { offset: 0x16896, size: 0x8, addend: 0x0, symName: __ZSt19__relocate_object_aI6VertexS0_SaIS0_EEvPT_PT0_RT1_, symObjAddr: 0x7F04, symBinAddr: 0x10000AB2C, symSize: 0xD0 }
  - { offset: 0x169C8, size: 0x8, addend: 0x0, symName: __ZSt10_ConstructI6VertexJEEvPT_DpOT0_, symObjAddr: 0x7ECC, symBinAddr: 0x10000AAF4, symSize: 0x38 }
  - { offset: 0x16A25, size: 0x8, addend: 0x0, symName: __ZN6VertexC1Ev, symObjAddr: 0x7EA8, symBinAddr: 0x10000AAD0, symSize: 0x24 }
  - { offset: 0x16A47, size: 0x8, addend: 0x0, symName: __ZSt11__addressofI6VertexEPT_RS1_, symObjAddr: 0x7E94, symBinAddr: 0x10000AABC, symSize: 0x14 }
  - { offset: 0x16AA5, size: 0x8, addend: 0x0, symName: __ZNSt5dequeIiSaIiEE17_M_reallocate_mapEmb, symObjAddr: 0x7C50, symBinAddr: 0x10000A878, symSize: 0x244 }
  - { offset: 0x16B56, size: 0x8, addend: 0x0, symName: __ZNSt5dequeIiSaIiEE11_S_max_sizeERKS0_, symObjAddr: 0x7BFC, symBinAddr: 0x10000A824, symSize: 0x54 }
  - { offset: 0x16C13, size: 0x8, addend: 0x0, symName: __ZStmiRKSt15_Deque_iteratorIiRiPiES4_, symObjAddr: 0x7B68, symBinAddr: 0x10000A790, symSize: 0x94 }
  - { offset: 0x16C52, size: 0x8, addend: 0x0, symName: __ZNSt15__new_allocatorIPiE10deallocateEPS0_m, symObjAddr: 0x7B38, symBinAddr: 0x10000A760, symSize: 0x30 }
  - { offset: 0x16CC0, size: 0x8, addend: 0x0, symName: __ZNSt15__new_allocatorIPiED2Ev, symObjAddr: 0x7B24, symBinAddr: 0x10000A74C, symSize: 0x14 }
  - { offset: 0x16D0A, size: 0x8, addend: 0x0, symName: __ZNKSt11_Deque_baseIiSaIiEE19_M_get_Tp_allocatorEv, symObjAddr: 0x7B10, symBinAddr: 0x10000A738, symSize: 0x14 }
  - { offset: 0x16D30, size: 0x8, addend: 0x0, symName: __ZNSt15_Deque_iteratorIiRiPiE14_S_buffer_sizeEv, symObjAddr: 0x7AF8, symBinAddr: 0x10000A720, symSize: 0x18 }
  - { offset: 0x16D8A, size: 0x8, addend: 0x0, symName: __ZNSt15_Deque_iteratorIiRiPiEC1Ev, symObjAddr: 0x7AC4, symBinAddr: 0x10000A6EC, symSize: 0x34 }
  - { offset: 0x16DB0, size: 0x8, addend: 0x0, symName: __ZNSt15__new_allocatorISt10_List_nodeIiEE10deallocateEPS1_m, symObjAddr: 0x7A88, symBinAddr: 0x10000A6B0, symSize: 0x3C }
  - { offset: 0x16DFE, size: 0x8, addend: 0x0, symName: __ZN9__gnu_cxx16__aligned_membufIiE7_M_addrEv, symObjAddr: 0x7A74, symBinAddr: 0x10000A69C, symSize: 0x14 }
  - { offset: 0x16E28, size: 0x8, addend: 0x0, symName: __ZNSt14_List_iteratorIiEmmEv, symObjAddr: 0x7A4C, symBinAddr: 0x10000A674, symSize: 0x28 }
  - { offset: 0x16E58, size: 0x8, addend: 0x0, symName: __ZNSt7__cxx114listIiSaIiEE14_M_create_nodeIJRiEEEPSt10_List_nodeIiEDpOT_, symObjAddr: 0x7974, symBinAddr: 0x10000A59C, symSize: 0xD8 }
  - { offset: 0x16F82, size: 0x8, addend: 0x0, symName: __ZNSt8__detail19_Node_iterator_baseISt4pairIKiNSt7__cxx114listIiSaIiEEEELb0EEC2EPNS_10_Hash_nodeIS7_Lb0EEE, symObjAddr: 0x7950, symBinAddr: 0x10000A578, symSize: 0x24 }
  - { offset: 0x16FB1, size: 0x8, addend: 0x0, symName: __ZNKSt8__detail15_Hash_code_baseIiSt4pairIKiNSt7__cxx114listIiSaIiEEEENS_10_Select1stESt4hashIiENS_18_Mod_range_hashingENS_20_Default_ranged_hashELb0EE15_M_bucket_indexERKNS_16_Hash_node_valueIS7_Lb0EEEm, symObjAddr: 0x78EC, symBinAddr: 0x10000A514, symSize: 0x64 }
  - { offset: 0x17045, size: 0x8, addend: 0x0, symName: __ZNSt10_HashtableIiSt4pairIKiNSt7__cxx114listIiSaIiEEEESaIS6_ENSt8__detail10_Select1stESt8equal_toIiESt4hashIiENS8_18_Mod_range_hashingENS8_20_Default_ranged_hashENS8_20_Prime_rehash_policyENS8_17_Hashtable_traitsILb0ELb0ELb1EEEE19_M_allocate_bucketsEm, symObjAddr: 0x7894, symBinAddr: 0x10000A4BC, symSize: 0x58 }
  - { offset: 0x1707C, size: 0x8, addend: 0x0, symName: __ZSt11__addressofINSt8__detail20_Prime_rehash_policyEEPT_RS2_, symObjAddr: 0x7880, symBinAddr: 0x10000A4A8, symSize: 0x14 }
  - { offset: 0x17138, size: 0x8, addend: 0x0, symName: __ZSt12__to_addressINSt8__detail10_Hash_nodeISt4pairIKiNSt7__cxx114listIiSaIiEEEELb0EEEEPT_SB_, symObjAddr: 0x786C, symBinAddr: 0x10000A494, symSize: 0x14 }
  - { offset: 0x171B9, size: 0x8, addend: 0x0, symName: __ZNSt10_Head_baseILm0ERKiLb0EEC2ES1_, symObjAddr: 0x7848, symBinAddr: 0x10000A470, symSize: 0x24 }
  - { offset: 0x171E8, size: 0x8, addend: 0x0, symName: __ZN9__gnu_cxx16__aligned_bufferISt4pairIKiNSt7__cxx114listIiSaIiEEEEE6_M_ptrEv, symObjAddr: 0x782C, symBinAddr: 0x10000A454, symSize: 0x1C }
  - { offset: 0x17212, size: 0x8, addend: 0x0, symName: __ZNKSt10_HashtableIiSt4pairIKiNSt7__cxx114listIiSaIiEEEESaIS6_ENSt8__detail10_Select1stESt8equal_toIiESt4hashIiENS8_18_Mod_range_hashingENS8_20_Default_ranged_hashENS8_20_Prime_rehash_policyENS8_17_Hashtable_traitsILb0ELb0ELb1EEEE15_M_bucket_indexERKNS8_16_Hash_node_valueIS6_Lb0EEE, symObjAddr: 0x77FC, symBinAddr: 0x10000A424, symSize: 0x30 }
  - { offset: 0x1724D, size: 0x8, addend: 0x0, symName: __ZNKSt8__detail15_Hashtable_baseIiSt4pairIKiNSt7__cxx114listIiSaIiEEEENS_10_Select1stESt8equal_toIiESt4hashIiENS_18_Mod_range_hashingENS_20_Default_ranged_hashENS_17_Hashtable_traitsILb0ELb0ELb1EEEE9_M_equalsERS2_mRKNS_16_Hash_node_valueIS7_Lb0EEE, symObjAddr: 0x779C, symBinAddr: 0x10000A3C4, symSize: 0x60 }
  - { offset: 0x172AA, size: 0x8, addend: 0x0, symName: __ZNKSt8__detail21_Hashtable_ebo_helperILi1ESt4hashIiELb1EE7_M_cgetEv, symObjAddr: 0x7788, symBinAddr: 0x10000A3B0, symSize: 0x14 }
  - { offset: 0x17346, size: 0x8, addend: 0x0, symName: __ZNSt19__ptr_traits_ptr_toIPPNSt8__detail15_Hash_node_baseES2_Lb0EE10pointer_toERS2_, symObjAddr: 0x776C, symBinAddr: 0x10000A394, symSize: 0x1C }
  - { offset: 0x17373, size: 0x8, addend: 0x0, symName: __ZNSt8__detail16_Hashtable_allocISaINS_10_Hash_nodeISt4pairIKiNSt7__cxx114listIiSaIiEEEELb0EEEEE22_M_deallocate_node_ptrEPS9_, symObjAddr: 0x7714, symBinAddr: 0x10000A33C, symSize: 0x58 }
  - { offset: 0x17422, size: 0x8, addend: 0x0, symName: __ZNSt8__detail16_Hashtable_allocISaINS_10_Hash_nodeISt4pairIKiNSt7__cxx114listIiSaIiEEEELb0EEEEE17_M_node_allocatorEv, symObjAddr: 0x76F8, symBinAddr: 0x10000A320, symSize: 0x1C }
  - { offset: 0x17448, size: 0x8, addend: 0x0, symName: __ZSt14__relocate_a_1IiiENSt9enable_ifIXsrSt24__is_bitwise_relocatableIT_vE5valueEPS2_E4typeES4_S4_S4_RSaIT0_E, symObjAddr: 0x7694, symBinAddr: 0x10000A2BC, symSize: 0x64 }
  - { offset: 0x174C8, size: 0x8, addend: 0x0, symName: __ZSt12__niter_baseIPiET_S1_, symObjAddr: 0x7680, symBinAddr: 0x10000A2A8, symSize: 0x14 }
  - { offset: 0x174FF, size: 0x8, addend: 0x0, symName: __ZNSt15__new_allocatorIiE8allocateEmPKv, symObjAddr: 0x7604, symBinAddr: 0x10000A22C, symSize: 0x7C }
  - { offset: 0x17587, size: 0x8, addend: 0x0, symName: __ZNSt6vectorIiSaIiEE11_S_max_sizeERKS0_, symObjAddr: 0x75B0, symBinAddr: 0x10000A1D8, symSize: 0x54 }
  - { offset: 0x1763E, size: 0x8, addend: 0x0, symName: __ZSt4copyIN9__gnu_cxx17__normal_iteratorIPKiSt6vectorIiSaIiEEEEPiET0_T_SA_S9_, symObjAddr: 0x7568, symBinAddr: 0x10000A190, symSize: 0x48 }
  - { offset: 0x176BB, size: 0x8, addend: 0x0, symName: __ZNSt15__new_allocatorImE8allocateEmPKv, symObjAddr: 0x74EC, symBinAddr: 0x10000A114, symSize: 0x7C }
  - { offset: 0x17747, size: 0x8, addend: 0x0, symName: __ZNSt15__new_allocatorImE10deallocateEPmm, symObjAddr: 0x74BC, symBinAddr: 0x10000A0E4, symSize: 0x30 }
  - { offset: 0x177A8, size: 0x8, addend: 0x0, symName: __ZNSt27__uninitialized_default_n_1ILb0EE18__uninit_default_nIPSt4pairIiiEmEET_S5_T0_, symObjAddr: 0x7434, symBinAddr: 0x10000A05C, symSize: 0x88 }
  - { offset: 0x1780A, size: 0x8, addend: 0x0, symName: __ZNSt15__new_allocatorISt4pairIiiEE10deallocateEPS1_m, symObjAddr: 0x7404, symBinAddr: 0x10000A02C, symSize: 0x30 }
  - { offset: 0x1788A, size: 0x8, addend: 0x0, symName: __ZNSt12_Destroy_auxILb0EE9__destroyIP6VertexEEvT_S4_, symObjAddr: 0x73B8, symBinAddr: 0x100009FE0, symSize: 0x4C }
  - { offset: 0x178CC, size: 0x8, addend: 0x0, symName: __ZSt14__relocate_a_1IP6VertexS1_SaIS0_EET0_T_S4_S3_RT1_, symObjAddr: 0x7334, symBinAddr: 0x100009F5C, symSize: 0x84 }
  - { offset: 0x17955, size: 0x8, addend: 0x0, symName: __ZSt12__niter_baseIP6VertexET_S2_, symObjAddr: 0x7320, symBinAddr: 0x100009F48, symSize: 0x14 }
  - { offset: 0x1798C, size: 0x8, addend: 0x0, symName: __ZNSt15__new_allocatorI6VertexE8allocateEmPKv, symObjAddr: 0x7290, symBinAddr: 0x100009EB8, symSize: 0x90 }
  - { offset: 0x17A14, size: 0x8, addend: 0x0, symName: __ZNSt27__uninitialized_default_n_1ILb0EE18__uninit_default_nIP6VertexmEET_S4_T0_, symObjAddr: 0x7238, symBinAddr: 0x100009E60, symSize: 0x58 }
  - { offset: 0x17AB8, size: 0x8, addend: 0x0, symName: __ZNSt7__cxx1110_List_baseIiSaIiEE11_M_inc_sizeEm, symObjAddr: 0x7208, symBinAddr: 0x100009E30, symSize: 0x30 }
  - { offset: 0x17AF3, size: 0x8, addend: 0x0, symName: __ZNSt7__cxx114listIiSaIiEE11_M_transferESt14_List_iteratorIiES4_S4_, symObjAddr: 0x71D4, symBinAddr: 0x100009DFC, symSize: 0x34 }
  - { offset: 0x17B50, size: 0x8, addend: 0x0, symName: __ZNSt7__cxx114listIiSaIiEE25_M_check_equal_allocatorsERKS2_, symObjAddr: 0x7180, symBinAddr: 0x100009DA8, symSize: 0x54 }
  - { offset: 0x17BB4, size: 0x8, addend: 0x0, symName: __ZSt11__addressofINSt7__cxx114listIiSaIiEEEEPT_RS4_, symObjAddr: 0x716C, symBinAddr: 0x100009D94, symSize: 0x14 }
  - { offset: 0x17BEC, size: 0x8, addend: 0x0, symName: __ZSteqRKSt20_List_const_iteratorIiES2_, symObjAddr: 0x713C, symBinAddr: 0x100009D64, symSize: 0x30 }
  - { offset: 0x17C2B, size: 0x8, addend: 0x0, symName: __ZNKSt20_List_const_iteratorIiE13_M_const_castEv, symObjAddr: 0x7114, symBinAddr: 0x100009D3C, symSize: 0x28 }
  - { offset: 0x17C55, size: 0x8, addend: 0x0, symName: __ZNSt11_Deque_baseIiSaIiEE16_M_allocate_nodeEv, symObjAddr: 0x70D0, symBinAddr: 0x100009CF8, symSize: 0x44 }
  - { offset: 0x17CAC, size: 0x8, addend: 0x0, symName: __ZNSt5dequeIiSaIiEE22_M_reserve_map_at_backEm, symObjAddr: 0x7070, symBinAddr: 0x100009C98, symSize: 0x60 }
  - { offset: 0x17CE7, size: 0x8, addend: 0x0, symName: __ZNKSt5dequeIiSaIiEE8max_sizeEv, symObjAddr: 0x7050, symBinAddr: 0x100009C78, symSize: 0x20 }
  - { offset: 0x17D11, size: 0x8, addend: 0x0, symName: __ZNKSt5dequeIiSaIiEE4sizeEv, symObjAddr: 0x7020, symBinAddr: 0x100009C48, symSize: 0x30 }
  - { offset: 0x17D8D, size: 0x8, addend: 0x0, symName: __ZNKSt11_Deque_baseIiSaIiEE20_M_get_map_allocatorEv, symObjAddr: 0x6FD8, symBinAddr: 0x100009C00, symSize: 0x48 }
  - { offset: 0x17E07, size: 0x8, addend: 0x0, symName: __ZNSt11_Deque_baseIiSaIiEE18_M_deallocate_nodeEPi, symObjAddr: 0x6F80, symBinAddr: 0x100009BA8, symSize: 0x58 }
  - { offset: 0x17E78, size: 0x8, addend: 0x0, symName: __ZNSt15_Deque_iteratorIiRiPiE11_M_set_nodeEPS1_, symObjAddr: 0x6F24, symBinAddr: 0x100009B4C, symSize: 0x5C }
  - { offset: 0x17EB3, size: 0x8, addend: 0x0, symName: __ZNSt11_Deque_baseIiSaIiEE15_M_create_nodesEPPiS3_, symObjAddr: 0x6E98, symBinAddr: 0x100009AC0, symSize: 0x8C }
  - { offset: 0x17F10, size: 0x8, addend: 0x0, symName: __ZNSt11_Deque_baseIiSaIiEE15_M_allocate_mapEm, symObjAddr: 0x6E18, symBinAddr: 0x100009A40, symSize: 0x80 }
  - { offset: 0x17FE2, size: 0x8, addend: 0x0, symName: __ZNSt11_Deque_baseIiSaIiEE16_Deque_impl_dataC2Ev, symObjAddr: 0x6DD8, symBinAddr: 0x100009A00, symSize: 0x40 }
  - { offset: 0x18010, size: 0x8, addend: 0x0, symName: __ZSt4moveIRNSt8__detail17_List_node_headerEEONSt16remove_referenceIT_E4typeEOS4_, symObjAddr: 0x6DC4, symBinAddr: 0x1000099EC, symSize: 0x14 }
  - { offset: 0x18046, size: 0x8, addend: 0x0, symName: __ZNSt7__cxx1110_List_baseIiSaIiEE7_M_initEv, symObjAddr: 0x6DA4, symBinAddr: 0x1000099CC, symSize: 0x20 }
  - { offset: 0x180CE, size: 0x8, addend: 0x0, symName: __ZN9__gnu_cxx16__aligned_membufIiE6_M_ptrEv, symObjAddr: 0x6D88, symBinAddr: 0x1000099B0, symSize: 0x1C }
  - { offset: 0x180F8, size: 0x8, addend: 0x0, symName: __ZNSt7__cxx114listIiSaIiEE4backEv, symObjAddr: 0x6D58, symBinAddr: 0x100009980, symSize: 0x30 }
  - { offset: 0x18133, size: 0x8, addend: 0x0, symName: __ZNSt7__cxx114listIiSaIiEE9_M_insertIJRiEEEvSt14_List_iteratorIiEDpOT_, symObjAddr: 0x6D08, symBinAddr: 0x100009930, symSize: 0x50 }
  - { offset: 0x181E5, size: 0x8, addend: 0x0, symName: __ZNSt8__detail14_Node_iteratorISt4pairIKiNSt7__cxx114listIiSaIiEEEELb0ELb0EEC1EPNS_10_Hash_nodeIS7_Lb0EEE, symObjAddr: 0x6CE0, symBinAddr: 0x100009908, symSize: 0x28 }
  - { offset: 0x18214, size: 0x8, addend: 0x0, symName: __ZNSt10_HashtableIiSt4pairIKiNSt7__cxx114listIiSaIiEEEESaIS6_ENSt8__detail10_Select1stESt8equal_toIiESt4hashIiENS8_18_Mod_range_hashingENS8_20_Default_ranged_hashENS8_20_Prime_rehash_policyENS8_17_Hashtable_traitsILb0ELb0ELb1EEEE22_M_insert_bucket_beginEmPNS8_10_Hash_nodeIS6_Lb0EEE, symObjAddr: 0x6BD4, symBinAddr: 0x1000097FC, symSize: 0x10C }
  - { offset: 0x18260, size: 0x8, addend: 0x0, symName: __ZNKSt8__detail15_Hash_code_baseIiSt4pairIKiNSt7__cxx114listIiSaIiEEEENS_10_Select1stESt4hashIiENS_18_Mod_range_hashingENS_20_Default_ranged_hashELb0EE13_M_store_codeERNS_21_Hash_node_code_cacheILb0EEEm, symObjAddr: 0x6BB8, symBinAddr: 0x1000097E0, symSize: 0x1C }
  - { offset: 0x1829C, size: 0x8, addend: 0x0, symName: __ZNSt10_HashtableIiSt4pairIKiNSt7__cxx114listIiSaIiEEEESaIS6_ENSt8__detail10_Select1stESt8equal_toIiESt4hashIiENS8_18_Mod_range_hashingENS8_20_Default_ranged_hashENS8_20_Prime_rehash_policyENS8_17_Hashtable_traitsILb0ELb0ELb1EEEE9_M_rehashEmSt17integral_constantIbLb1EE, symObjAddr: 0x6A4C, symBinAddr: 0x100009674, symSize: 0x16C }
  - { offset: 0x1836D, size: 0x8, addend: 0x0, symName: __ZNSt8__detail17_RehashStateGuardINS_20_Prime_rehash_policyEED1Ev, symObjAddr: 0x6A08, symBinAddr: 0x100009630, symSize: 0x44 }
  - { offset: 0x183BB, size: 0x8, addend: 0x0, symName: __ZNSt8__detail17_RehashStateGuardINS_20_Prime_rehash_policyEEC1ERS1_, symObjAddr: 0x69C4, symBinAddr: 0x1000095EC, symSize: 0x44 }
  - { offset: 0x183EA, size: 0x8, addend: 0x0, symName: __ZNSt8__detail16_Hashtable_allocISaINS_10_Hash_nodeISt4pairIKiNSt7__cxx114listIiSaIiEEEELb0EEEEE16_M_allocate_nodeIJRKSt21piecewise_construct_tSt5tupleIJRS3_EESG_IJEEEEEPS9_DpOT_, symObjAddr: 0x67D8, symBinAddr: 0x100009400, symSize: 0x1EC }
  - { offset: 0x185BA, size: 0x8, addend: 0x0, symName: __ZNSt8__detail10_Hash_nodeISt4pairIKiNSt7__cxx114listIiSaIiEEEELb0EEC1Ev, symObjAddr: 0x67B8, symBinAddr: 0x1000093E0, symSize: 0x20 }
  - { offset: 0x185E2, size: 0x8, addend: 0x0, symName: __ZSt7forwardISt5tupleIJEEEOT_RNSt16remove_referenceIS2_E4typeE, symObjAddr: 0x67A4, symBinAddr: 0x1000093CC, symSize: 0x14 }
  - { offset: 0x1861A, size: 0x8, addend: 0x0, symName: __ZSt7forwardISt5tupleIJRKiEEEOT_RNSt16remove_referenceIS4_E4typeE, symObjAddr: 0x6790, symBinAddr: 0x1000093B8, symSize: 0x14 }
  - { offset: 0x18652, size: 0x8, addend: 0x0, symName: __ZSt7forwardIRKSt21piecewise_construct_tEOT_RNSt16remove_referenceIS3_E4typeE, symObjAddr: 0x677C, symBinAddr: 0x1000093A4, symSize: 0x14 }
  - { offset: 0x186B0, size: 0x8, addend: 0x0, symName: __ZNSt11_Tuple_implILm0EJRKiEEC2ES1_, symObjAddr: 0x6754, symBinAddr: 0x10000937C, symSize: 0x28 }
  - { offset: 0x186F5, size: 0x8, addend: 0x0, symName: __ZNKSt10_HashtableIiSt4pairIKiNSt7__cxx114listIiSaIiEEEESaIS6_ENSt8__detail10_Select1stESt8equal_toIiESt4hashIiENS8_18_Mod_range_hashingENS8_20_Default_ranged_hashENS8_20_Prime_rehash_policyENS8_17_Hashtable_traitsILb0ELb0ELb1EEEE19_M_find_before_nodeEmRS1_m, symObjAddr: 0x6658, symBinAddr: 0x100009280, symSize: 0xFC }
  - { offset: 0x18787, size: 0x8, addend: 0x0, symName: __ZNKSt8__detail15_Hash_code_baseIiSt4pairIKiNSt7__cxx114listIiSaIiEEEENS_10_Select1stESt4hashIiENS_18_Mod_range_hashingENS_20_Default_ranged_hashELb0EE15_M_bucket_indexEmm, symObjAddr: 0x662C, symBinAddr: 0x100009254, symSize: 0x2C }
  - { offset: 0x187D3, size: 0x8, addend: 0x0, symName: __ZNKSt8__detail15_Hash_code_baseIiSt4pairIKiNSt7__cxx114listIiSaIiEEEENS_10_Select1stESt4hashIiENS_18_Mod_range_hashingENS_20_Default_ranged_hashELb0EE7_M_hashEv, symObjAddr: 0x6610, symBinAddr: 0x100009238, symSize: 0x1C }
  - { offset: 0x187FD, size: 0x8, addend: 0x0, symName: __ZNSt8__detail16_Hashtable_allocISaINS_10_Hash_nodeISt4pairIKiNSt7__cxx114listIiSaIiEEEELb0EEEEE21_M_deallocate_bucketsEPPNS_15_Hash_node_baseEm, symObjAddr: 0x6598, symBinAddr: 0x1000091C0, symSize: 0x78 }
  - { offset: 0x1890D, size: 0x8, addend: 0x0, symName: __ZNKSt10_HashtableIiSt4pairIKiNSt7__cxx114listIiSaIiEEEESaIS6_ENSt8__detail10_Select1stESt8equal_toIiESt4hashIiENS8_18_Mod_range_hashingENS8_20_Default_ranged_hashENS8_20_Prime_rehash_policyENS8_17_Hashtable_traitsILb0ELb0ELb1EEEE21_M_uses_single_bucketEPPNS8_15_Hash_node_baseE, symObjAddr: 0x655C, symBinAddr: 0x100009184, symSize: 0x3C }
  - { offset: 0x18948, size: 0x8, addend: 0x0, symName: __ZNSt8__detail16_Hashtable_allocISaINS_10_Hash_nodeISt4pairIKiNSt7__cxx114listIiSaIiEEEELb0EEEEE18_M_deallocate_nodeEPS9_, symObjAddr: 0x64E0, symBinAddr: 0x100009108, symSize: 0x7C }
  - { offset: 0x18A01, size: 0x8, addend: 0x0, symName: __ZNKSt8__detail10_Hash_nodeISt4pairIKiNSt7__cxx114listIiSaIiEEEELb0EE7_M_nextEv, symObjAddr: 0x64C8, symBinAddr: 0x1000090F0, symSize: 0x18 }
  - { offset: 0x18A27, size: 0x8, addend: 0x0, symName: __ZSt12__relocate_aIPiS0_SaIiEET0_T_S3_S2_RT1_, symObjAddr: 0x646C, symBinAddr: 0x100009094, symSize: 0x5C }
  - { offset: 0x18AC7, size: 0x8, addend: 0x0, symName: __ZNKSt6vectorIiSaIiEE8max_sizeEv, symObjAddr: 0x644C, symBinAddr: 0x100009074, symSize: 0x20 }
  - { offset: 0x18AED, size: 0x8, addend: 0x0, symName: __ZNSt12_Destroy_auxILb1EE9__destroyIPiEEvT_S3_, symObjAddr: 0x6434, symBinAddr: 0x10000905C, symSize: 0x18 }
  - { offset: 0x18B21, size: 0x8, addend: 0x0, symName: __ZNSt20__uninitialized_copyILb1EE13__uninit_copyIN9__gnu_cxx17__normal_iteratorIPKiSt6vectorIiSaIiEEEEPiEET0_T_SC_SB_, symObjAddr: 0x6408, symBinAddr: 0x100009030, symSize: 0x2C }
  - { offset: 0x18BC7, size: 0x8, addend: 0x0, symName: __ZNSt13_Bvector_baseISaIbEE18_Bvector_impl_data8_M_resetEv, symObjAddr: 0x63C8, symBinAddr: 0x100008FF0, symSize: 0x40 }
  - { offset: 0x18C3D, size: 0x8, addend: 0x0, symName: __ZNSt13_Bvector_baseISaIbEE18_Bvector_impl_dataC1Ev, symObjAddr: 0x6394, symBinAddr: 0x100008FBC, symSize: 0x34 }
  - { offset: 0x18C67, size: 0x8, addend: 0x0, symName: __ZNSt13_Bvector_baseISaIbEE18_Bvector_impl_dataC2Ev, symObjAddr: 0x6360, symBinAddr: 0x100008F88, symSize: 0x34 }
  - { offset: 0x18CD4, size: 0x8, addend: 0x0, symName: __ZNSt15__new_allocatorImED2Ev, symObjAddr: 0x634C, symBinAddr: 0x100008F74, symSize: 0x14 }
  - { offset: 0x18D0C, size: 0x8, addend: 0x0, symName: __ZNSt12_Destroy_auxILb1EE9__destroyIPSt4pairIiiEEEvT_S5_, symObjAddr: 0x6334, symBinAddr: 0x100008F5C, symSize: 0x18 }
  - { offset: 0x18D40, size: 0x8, addend: 0x0, symName: __ZSt25__uninitialized_default_nIPSt4pairIiiEmET_S3_T0_, symObjAddr: 0x6308, symBinAddr: 0x100008F30, symSize: 0x2C }
  - { offset: 0x18DD4, size: 0x8, addend: 0x0, symName: __ZNSt12_Vector_baseISt4pairIiiESaIS1_EE11_M_allocateEm, symObjAddr: 0x62B8, symBinAddr: 0x100008EE0, symSize: 0x50 }
  - { offset: 0x18E56, size: 0x8, addend: 0x0, symName: __ZNSt12_Vector_baseISt4pairIiiESaIS1_EE17_Vector_impl_dataC2Ev, symObjAddr: 0x628C, symBinAddr: 0x100008EB4, symSize: 0x2C }
  - { offset: 0x18EEB, size: 0x8, addend: 0x0, symName: __ZSt8_DestroyIP6VertexEvT_S2_, symObjAddr: 0x6264, symBinAddr: 0x100008E8C, symSize: 0x28 }
  - { offset: 0x18F2D, size: 0x8, addend: 0x0, symName: __ZSt12__relocate_aIP6VertexS1_SaIS0_EET0_T_S4_S3_RT1_, symObjAddr: 0x6208, symBinAddr: 0x100008E30, symSize: 0x5C }
  - { offset: 0x18FC9, size: 0x8, addend: 0x0, symName: __ZSt25__uninitialized_default_nIP6VertexmET_S2_T0_, symObjAddr: 0x61DC, symBinAddr: 0x100008E04, symSize: 0x2C }
  - { offset: 0x1902B, size: 0x8, addend: 0x0, symName: __ZNKSt12_Vector_baseI6VertexSaIS0_EE19_M_get_Tp_allocatorEv, symObjAddr: 0x61C8, symBinAddr: 0x100008DF0, symSize: 0x14 }
  - { offset: 0x19051, size: 0x8, addend: 0x0, symName: __ZNSt6vectorI6VertexSaIS0_EE11_S_max_sizeERKS1_, symObjAddr: 0x616C, symBinAddr: 0x100008D94, symSize: 0x5C }
  - { offset: 0x1910C, size: 0x8, addend: 0x0, symName: __ZNSt15__new_allocatorIiE10deallocateEPim, symObjAddr: 0x613C, symBinAddr: 0x100008D64, symSize: 0x30 }
  - { offset: 0x19156, size: 0x8, addend: 0x0, symName: __ZNSt15__new_allocatorI6VertexE10deallocateEPS0_m, symObjAddr: 0x6100, symBinAddr: 0x100008D28, symSize: 0x3C }
  - { offset: 0x191D0, size: 0x8, addend: 0x0, symName: __ZNSt5dequeIiSaIiEE15_M_pop_back_auxEv, symObjAddr: 0x6068, symBinAddr: 0x100008C90, symSize: 0x98 }
  - { offset: 0x19281, size: 0x8, addend: 0x0, symName: __ZNSt7__cxx114listIiSaIiEE6spliceESt20_List_const_iteratorIiEOS2_S4_, symObjAddr: 0x5F5C, symBinAddr: 0x100008B84, symSize: 0x10C }
  - { offset: 0x19313, size: 0x8, addend: 0x0, symName: __ZNKSt7__cxx1110_List_baseIiSaIiEE21_M_get_Node_allocatorEv, symObjAddr: 0x5F48, symBinAddr: 0x100008B70, symSize: 0x14 }
  - { offset: 0x1933D, size: 0x8, addend: 0x0, symName: __ZNSt7__cxx1110_List_baseIiSaIiEE11_M_dec_sizeEm, symObjAddr: 0x5F18, symBinAddr: 0x100008B40, symSize: 0x30 }
  - { offset: 0x193A0, size: 0x8, addend: 0x0, symName: __ZNSt14_List_iteratorIiEC1EPNSt8__detail15_List_node_baseE, symObjAddr: 0x5EF4, symBinAddr: 0x100008B1C, symSize: 0x24 }
  - { offset: 0x193CF, size: 0x8, addend: 0x0, symName: __ZNKSt15_Deque_iteratorIiRiPiEdeEv, symObjAddr: 0x5EDC, symBinAddr: 0x100008B04, symSize: 0x18 }
  - { offset: 0x193F9, size: 0x8, addend: 0x0, symName: __ZNSt15_Deque_iteratorIiRiPiEmmEv, symObjAddr: 0x5E70, symBinAddr: 0x100008A98, symSize: 0x6C }
  - { offset: 0x1941F, size: 0x8, addend: 0x0, symName: __ZSteqRKSt15_Deque_iteratorIiRiPiES4_, symObjAddr: 0x5E40, symBinAddr: 0x100008A68, symSize: 0x30 }
  - { offset: 0x1945E, size: 0x8, addend: 0x0, symName: __ZNSt5dequeIiSaIiEE16_M_push_back_auxIJRKiEEEvDpOT_, symObjAddr: 0x5D20, symBinAddr: 0x100008948, symSize: 0x120 }
  - { offset: 0x19536, size: 0x8, addend: 0x0, symName: __ZNSt15_Deque_iteratorIiRiPiEC1ERKS2_, symObjAddr: 0x5CC8, symBinAddr: 0x1000088F0, symSize: 0x58 }
  - { offset: 0x19565, size: 0x8, addend: 0x0, symName: __ZNSt11_Deque_baseIiSaIiEE17_M_deallocate_mapEPPim, symObjAddr: 0x5C68, symBinAddr: 0x100008890, symSize: 0x60 }
  - { offset: 0x19616, size: 0x8, addend: 0x0, symName: __ZNSt11_Deque_baseIiSaIiEE16_M_destroy_nodesEPPiS3_, symObjAddr: 0x5C08, symBinAddr: 0x100008830, symSize: 0x60 }
  - { offset: 0x19686, size: 0x8, addend: 0x0, symName: __ZNSt11_Deque_baseIiSaIiEE17_M_initialize_mapEm, symObjAddr: 0x5A7C, symBinAddr: 0x1000086A4, symSize: 0x18C }
  - { offset: 0x1970E, size: 0x8, addend: 0x0, symName: __ZNSt11_Deque_baseIiSaIiEE11_Deque_implC1Ev, symObjAddr: 0x5A44, symBinAddr: 0x10000866C, symSize: 0x38 }
  - { offset: 0x197A8, size: 0x8, addend: 0x0, symName: __ZNSt7__cxx1110_List_baseIiSaIiEE13_M_move_nodesEOS2_, symObjAddr: 0x5A08, symBinAddr: 0x100008630, symSize: 0x3C }
  - { offset: 0x197E3, size: 0x8, addend: 0x0, symName: __ZNSt7__cxx114listIiSaIiEE5clearEv, symObjAddr: 0x59E0, symBinAddr: 0x100008608, symSize: 0x28 }
  - { offset: 0x1980D, size: 0x8, addend: 0x0, symName: __ZNSt7__cxx1110_List_baseIiSaIiEE11_M_put_nodeEPSt10_List_nodeIiE, symObjAddr: 0x5998, symBinAddr: 0x1000085C0, symSize: 0x48 }
  - { offset: 0x198AB, size: 0x8, addend: 0x0, symName: __ZNSt7__cxx1110_List_baseIiSaIiEE21_M_get_Node_allocatorEv, symObjAddr: 0x5984, symBinAddr: 0x1000085AC, symSize: 0x14 }
  - { offset: 0x198D5, size: 0x8, addend: 0x0, symName: __ZNSt10_List_nodeIiE9_M_valptrEv, symObjAddr: 0x5964, symBinAddr: 0x10000858C, symSize: 0x20 }
  - { offset: 0x198FF, size: 0x8, addend: 0x0, symName: __ZNSt7__cxx114listIiSaIiEE12emplace_backIJRiEEES4_DpOT_, symObjAddr: 0x5918, symBinAddr: 0x100008540, symSize: 0x4C }
  - { offset: 0x1996C, size: 0x8, addend: 0x0, symName: __ZNSt7__cxx1110_List_baseIiSaIiEE10_List_implC1EOSaISt10_List_nodeIiEE, symObjAddr: 0x58C4, symBinAddr: 0x1000084EC, symSize: 0x54 }
  - { offset: 0x199F6, size: 0x8, addend: 0x0, symName: __ZSt4moveIRSaISt10_List_nodeIiEEEONSt16remove_referenceIT_E4typeEOS5_, symObjAddr: 0x58B0, symBinAddr: 0x1000084D8, symSize: 0x14 }
  - { offset: 0x19A50, size: 0x8, addend: 0x0, symName: __ZNSt15__new_allocatorISt10_List_nodeIiEED2Ev, symObjAddr: 0x589C, symBinAddr: 0x1000084C4, symSize: 0x14 }
  - { offset: 0x19A8C, size: 0x8, addend: 0x0, symName: __ZNKSt8__detail14_Node_iteratorISt4pairIKiNSt7__cxx114listIiSaIiEEEELb0ELb0EEptEv, symObjAddr: 0x586C, symBinAddr: 0x100008494, symSize: 0x30 }
  - { offset: 0x19ADA, size: 0x8, addend: 0x0, symName: __ZNSt10_HashtableIiSt4pairIKiNSt7__cxx114listIiSaIiEEEESaIS6_ENSt8__detail10_Select1stESt8equal_toIiESt4hashIiENS8_18_Mod_range_hashingENS8_20_Default_ranged_hashENS8_20_Prime_rehash_policyENS8_17_Hashtable_traitsILb0ELb0ELb1EEEE21_M_insert_unique_nodeEmmPNS8_10_Hash_nodeIS6_Lb0EEEm, symObjAddr: 0x575C, symBinAddr: 0x100008384, symSize: 0x110 }
  - { offset: 0x19B91, size: 0x8, addend: 0x0, symName: __ZNSt10_HashtableIiSt4pairIKiNSt7__cxx114listIiSaIiEEEESaIS6_ENSt8__detail10_Select1stESt8equal_toIiESt4hashIiENS8_18_Mod_range_hashingENS8_20_Default_ranged_hashENS8_20_Prime_rehash_policyENS8_17_Hashtable_traitsILb0ELb0ELb1EEEE12_Scoped_nodeD1Ev, symObjAddr: 0x5718, symBinAddr: 0x100008340, symSize: 0x44 }
  - { offset: 0x19C0A, size: 0x8, addend: 0x0, symName: __ZNSt10_HashtableIiSt4pairIKiNSt7__cxx114listIiSaIiEEEESaIS6_ENSt8__detail10_Select1stESt8equal_toIiESt4hashIiENS8_18_Mod_range_hashingENS8_20_Default_ranged_hashENS8_20_Prime_rehash_policyENS8_17_Hashtable_traitsILb0ELb0ELb1EEEE12_Scoped_nodeC1IJRKSt21piecewise_construct_tSt5tupleIJRS1_EESP_IJEEEEEPNS8_16_Hashtable_allocISaINS8_10_Hash_nodeIS6_Lb0EEEEEEDpOT_, symObjAddr: 0x5690, symBinAddr: 0x1000082B8, symSize: 0x88 }
  - { offset: 0x19CA2, size: 0x8, addend: 0x0, symName: __ZNSt5tupleIJRKiEEC1ILb1ELb1EEES1_, symObjAddr: 0x5668, symBinAddr: 0x100008290, symSize: 0x28 }
  - { offset: 0x19CF1, size: 0x8, addend: 0x0, symName: __ZNKSt10_HashtableIiSt4pairIKiNSt7__cxx114listIiSaIiEEEESaIS6_ENSt8__detail10_Select1stESt8equal_toIiESt4hashIiENS8_18_Mod_range_hashingENS8_20_Default_ranged_hashENS8_20_Prime_rehash_policyENS8_17_Hashtable_traitsILb0ELb0ELb1EEEE12_M_find_nodeEmRS1_m, symObjAddr: 0x5614, symBinAddr: 0x10000823C, symSize: 0x54 }
  - { offset: 0x19D5F, size: 0x8, addend: 0x0, symName: __ZNKSt10_HashtableIiSt4pairIKiNSt7__cxx114listIiSaIiEEEESaIS6_ENSt8__detail10_Select1stESt8equal_toIiESt4hashIiENS8_18_Mod_range_hashingENS8_20_Default_ranged_hashENS8_20_Prime_rehash_policyENS8_17_Hashtable_traitsILb0ELb0ELb1EEEE15_M_bucket_indexEm, symObjAddr: 0x55E4, symBinAddr: 0x10000820C, symSize: 0x30 }
  - { offset: 0x19D9A, size: 0x8, addend: 0x0, symName: __ZNKSt8__detail15_Hash_code_baseIiSt4pairIKiNSt7__cxx114listIiSaIiEEEENS_10_Select1stESt4hashIiENS_18_Mod_range_hashingENS_20_Default_ranged_hashELb0EE12_M_hash_codeERS2_, symObjAddr: 0x55AC, symBinAddr: 0x1000081D4, symSize: 0x38 }
  - { offset: 0x19DD5, size: 0x8, addend: 0x0, symName: __ZNSt10_HashtableIiSt4pairIKiNSt7__cxx114listIiSaIiEEEESaIS6_ENSt8__detail10_Select1stESt8equal_toIiESt4hashIiENS8_18_Mod_range_hashingENS8_20_Default_ranged_hashENS8_20_Prime_rehash_policyENS8_17_Hashtable_traitsILb0ELb0ELb1EEEE21_M_deallocate_bucketsEPPNS8_15_Hash_node_baseEm, symObjAddr: 0x5560, symBinAddr: 0x100008188, symSize: 0x4C }
  - { offset: 0x19E21, size: 0x8, addend: 0x0, symName: __ZNSt8__detail16_Hashtable_allocISaINS_10_Hash_nodeISt4pairIKiNSt7__cxx114listIiSaIiEEEELb0EEEEE19_M_deallocate_nodesEPS9_, symObjAddr: 0x5510, symBinAddr: 0x100008138, symSize: 0x50 }
  - { offset: 0x19E80, size: 0x8, addend: 0x0, symName: __ZNKSt10_HashtableIiSt4pairIKiNSt7__cxx114listIiSaIiEEEESaIS6_ENSt8__detail10_Select1stESt8equal_toIiESt4hashIiENS8_18_Mod_range_hashingENS8_20_Default_ranged_hashENS8_20_Prime_rehash_policyENS8_17_Hashtable_traitsILb0ELb0ELb1EEEE8_M_beginEv, symObjAddr: 0x54F8, symBinAddr: 0x100008120, symSize: 0x18 }
  - { offset: 0x19EC0, size: 0x8, addend: 0x0, symName: __ZNK9__gnu_cxx17__normal_iteratorIPiSt6vectorIiSaIiEEEmiEl, symObjAddr: 0x54B4, symBinAddr: 0x1000080DC, symSize: 0x44 }
  - { offset: 0x19F39, size: 0x8, addend: 0x0, symName: __ZNSt6vectorIiSaIiEE11_S_relocateEPiS2_S2_RS0_, symObjAddr: 0x5480, symBinAddr: 0x1000080A8, symSize: 0x34 }
  - { offset: 0x19F96, size: 0x8, addend: 0x0, symName: __ZSt12__to_addressIiEPT_S1_, symObjAddr: 0x546C, symBinAddr: 0x100008094, symSize: 0x14 }
  - { offset: 0x19FCC, size: 0x8, addend: 0x0, symName: __ZNSt12_Vector_baseIiSaIiEE11_M_allocateEm, symObjAddr: 0x541C, symBinAddr: 0x100008044, symSize: 0x50 }
  - { offset: 0x1A036, size: 0x8, addend: 0x0, symName: __ZN9__gnu_cxxmiIPiSt6vectorIiSaIiEEEENS_17__normal_iteratorIT_T0_E15difference_typeERKS8_SB_, symObjAddr: 0x53DC, symBinAddr: 0x100008004, symSize: 0x40 }
  - { offset: 0x1A087, size: 0x8, addend: 0x0, symName: __ZNKSt6vectorIiSaIiEE12_M_check_lenEmPKc, symObjAddr: 0x530C, symBinAddr: 0x100007F34, symSize: 0xD0 }
  - { offset: 0x1A128, size: 0x8, addend: 0x0, symName: __ZSt7forwardIRKiEOT_RNSt16remove_referenceIS2_E4typeE, symObjAddr: 0x52F8, symBinAddr: 0x100007F20, symSize: 0x14 }
  - { offset: 0x1A15A, size: 0x8, addend: 0x0, symName: __ZSt8_DestroyIPiEvT_S1_, symObjAddr: 0x52D0, symBinAddr: 0x100007EF8, symSize: 0x28 }
  - { offset: 0x1A19C, size: 0x8, addend: 0x0, symName: __ZSt18uninitialized_copyIN9__gnu_cxx17__normal_iteratorIPKiSt6vectorIiSaIiEEEEPiET0_T_SA_S9_, symObjAddr: 0x5294, symBinAddr: 0x100007EBC, symSize: 0x3C }
  - { offset: 0x1A243, size: 0x8, addend: 0x0, symName: __ZN9__gnu_cxx17__normal_iteratorIPKiSt6vectorIiSaIiEEEC1ERKS2_, symObjAddr: 0x526C, symBinAddr: 0x100007E94, symSize: 0x28 }
  - { offset: 0x1A272, size: 0x8, addend: 0x0, symName: __ZNSt12_Vector_baseIiSaIiEE17_M_create_storageEm, symObjAddr: 0x520C, symBinAddr: 0x100007E34, symSize: 0x60 }
  - { offset: 0x1A2D4, size: 0x8, addend: 0x0, symName: __ZNSt12_Vector_baseIiSaIiEE12_Vector_implC1ERKS0_, symObjAddr: 0x51C0, symBinAddr: 0x100007DE8, symSize: 0x4C }
  - { offset: 0x1A371, size: 0x8, addend: 0x0, symName: __ZNKSt13_Bvector_baseISaIbEE13_Bvector_impl11_M_end_addrEv, symObjAddr: 0x5180, symBinAddr: 0x100007DA8, symSize: 0x40 }
  - { offset: 0x1A397, size: 0x8, addend: 0x0, symName: __ZSt11__addressofImEPT_RS0_, symObjAddr: 0x516C, symBinAddr: 0x100007D94, symSize: 0x14 }
  - { offset: 0x1A3C9, size: 0x8, addend: 0x0, symName: __ZNSt13_Bvector_baseISaIbEE8_S_nwordEm, symObjAddr: 0x5150, symBinAddr: 0x100007D78, symSize: 0x1C }
  - { offset: 0x1A3F7, size: 0x8, addend: 0x0, symName: __ZNSt13_Bvector_baseISaIbEE11_M_allocateEm, symObjAddr: 0x5100, symBinAddr: 0x100007D28, symSize: 0x50 }
  - { offset: 0x1A470, size: 0x8, addend: 0x0, symName: __ZNSt13_Bvector_baseISaIbEE13_M_deallocateEv, symObjAddr: 0x5070, symBinAddr: 0x100007C98, symSize: 0x90 }
  - { offset: 0x1A51C, size: 0x8, addend: 0x0, symName: __ZNSt13_Bvector_baseISaIbEE13_Bvector_implC1ERKSaImE, symObjAddr: 0x5024, symBinAddr: 0x100007C4C, symSize: 0x4C }
  - { offset: 0x1A5E4, size: 0x8, addend: 0x0, symName: __ZSt8_DestroyIPSt4pairIiiEEvT_S3_, symObjAddr: 0x4FFC, symBinAddr: 0x100007C24, symSize: 0x28 }
  - { offset: 0x1A626, size: 0x8, addend: 0x0, symName: __ZSt27__uninitialized_default_n_aIPSt4pairIiiEmS1_ET_S3_T0_RSaIT1_E, symObjAddr: 0x4FD4, symBinAddr: 0x100007BFC, symSize: 0x28 }
  - { offset: 0x1A689, size: 0x8, addend: 0x0, symName: __ZNSt12_Vector_baseISt4pairIiiESaIS1_EE13_M_deallocateEPS1_m, symObjAddr: 0x4F7C, symBinAddr: 0x100007BA4, symSize: 0x58 }
  - { offset: 0x1A70B, size: 0x8, addend: 0x0, symName: __ZNSt12_Vector_baseISt4pairIiiESaIS1_EE17_M_create_storageEm, symObjAddr: 0x4F1C, symBinAddr: 0x100007B44, symSize: 0x60 }
  - { offset: 0x1A76D, size: 0x8, addend: 0x0, symName: __ZNSt12_Vector_baseISt4pairIiiESaIS1_EE12_Vector_implC1ERKS2_, symObjAddr: 0x4ED0, symBinAddr: 0x100007AF8, symSize: 0x4C }
  - { offset: 0x1A813, size: 0x8, addend: 0x0, symName: __ZNSt6vectorISt4pairIiiESaIS1_EE11_S_max_sizeERKS2_, symObjAddr: 0x4E7C, symBinAddr: 0x100007AA4, symSize: 0x54 }
  - { offset: 0x1A8CE, size: 0x8, addend: 0x0, symName: __ZNSt6vectorIiSaIiEE17_M_realloc_appendIJiEEEvDpOT_, symObjAddr: 0x4CC0, symBinAddr: 0x1000078E8, symSize: 0x1BC }
  - { offset: 0x1AA52, size: 0x8, addend: 0x0, symName: __ZZNSt6vectorIiSaIiEE17_M_realloc_appendIJiEEEvDpOT_EN6_GuardC1EPimRS0_, symObjAddr: 0x4C1C, symBinAddr: 0x100007844, symSize: 0x44 }
  - { offset: 0x1AA97, size: 0x8, addend: 0x0, symName: __ZZNSt6vectorIiSaIiEE17_M_realloc_appendIJiEEEvDpOT_EN6_GuardD1Ev, symObjAddr: 0x4C60, symBinAddr: 0x100007888, symSize: 0x60 }
  - { offset: 0x1AC05, size: 0x8, addend: 0x0, symName: __ZNSt6vectorI6VertexSaIS0_EE11_S_relocateEPS0_S3_S3_RS1_, symObjAddr: 0x4BE8, symBinAddr: 0x100007810, symSize: 0x34 }
  - { offset: 0x1AC66, size: 0x8, addend: 0x0, symName: __ZNSt12_Vector_baseI6VertexSaIS0_EE11_M_allocateEm, symObjAddr: 0x4B98, symBinAddr: 0x1000077C0, symSize: 0x50 }
  - { offset: 0x1ACCE, size: 0x8, addend: 0x0, symName: __ZNKSt6vectorI6VertexSaIS0_EE12_M_check_lenEmPKc, symObjAddr: 0x4AC8, symBinAddr: 0x1000076F0, symSize: 0xD0 }
  - { offset: 0x1AD27, size: 0x8, addend: 0x0, symName: __ZSt27__uninitialized_default_n_aIP6VertexmS0_ET_S2_T0_RSaIT1_E, symObjAddr: 0x4AA0, symBinAddr: 0x1000076C8, symSize: 0x28 }
  - { offset: 0x1AD8A, size: 0x8, addend: 0x0, symName: __ZNSt12_Vector_baseI6VertexSaIS0_EE19_M_get_Tp_allocatorEv, symObjAddr: 0x4A8C, symBinAddr: 0x1000076B4, symSize: 0x14 }
  - { offset: 0x1ADB4, size: 0x8, addend: 0x0, symName: __ZNKSt6vectorI6VertexSaIS0_EE8max_sizeEv, symObjAddr: 0x4A6C, symBinAddr: 0x100007694, symSize: 0x20 }
  - { offset: 0x1AE83, size: 0x8, addend: 0x0, symName: __ZNK9__gnu_cxx17__normal_iteratorIPiSt6vectorIiSaIiEEE4baseEv, symObjAddr: 0x4A58, symBinAddr: 0x100007680, symSize: 0x14 }
  - { offset: 0x1AEAD, size: 0x8, addend: 0x0, symName: __ZNSt5dequeIiSaIiEE8pop_backEv, symObjAddr: 0x49D4, symBinAddr: 0x1000075FC, symSize: 0x84 }
  - { offset: 0x1AF31, size: 0x8, addend: 0x0, symName: __ZNSt7__cxx114listIiSaIiEE6spliceESt20_List_const_iteratorIiERS2_S4_, symObjAddr: 0x4994, symBinAddr: 0x1000075BC, symSize: 0x40 }
  - { offset: 0x1AFB6, size: 0x8, addend: 0x0, symName: __ZNSt20_List_const_iteratorIiEC1ERKSt14_List_iteratorIiE, symObjAddr: 0x496C, symBinAddr: 0x100007594, symSize: 0x28 }
  - { offset: 0x1AFE5, size: 0x8, addend: 0x0, symName: __ZNSt14_List_iteratorIiEppEv, symObjAddr: 0x4944, symBinAddr: 0x10000756C, symSize: 0x28 }
  - { offset: 0x1B011, size: 0x8, addend: 0x0, symName: __ZStneRKSt14_List_iteratorIiES2_, symObjAddr: 0x4914, symBinAddr: 0x10000753C, symSize: 0x30 }
  - { offset: 0x1B050, size: 0x8, addend: 0x0, symName: __ZNSt7__cxx114listIiSaIiEE3endEv, symObjAddr: 0x48F0, symBinAddr: 0x100007518, symSize: 0x24 }
  - { offset: 0x1B0A2, size: 0x8, addend: 0x0, symName: __ZNSt7__cxx114listIiSaIiEEC1ERKS1_, symObjAddr: 0x48A4, symBinAddr: 0x1000074CC, symSize: 0x4C }
  - { offset: 0x1B13F, size: 0x8, addend: 0x0, symName: __ZNKSt7__cxx114listIiSaIiEE13get_allocatorEv, symObjAddr: 0x485C, symBinAddr: 0x100007484, symSize: 0x48 }
  - { offset: 0x1B1B9, size: 0x8, addend: 0x0, symName: __ZNSt7__cxx114listIiSaIiEE8_M_eraseESt14_List_iteratorIiE, symObjAddr: 0x47DC, symBinAddr: 0x100007404, symSize: 0x80 }
  - { offset: 0x1B25F, size: 0x8, addend: 0x0, symName: __ZNKSt14_List_iteratorIiEdeEv, symObjAddr: 0x47BC, symBinAddr: 0x1000073E4, symSize: 0x20 }
  - { offset: 0x1B289, size: 0x8, addend: 0x0, symName: __ZNSt7__cxx114listIiSaIiEE5beginEv, symObjAddr: 0x4794, symBinAddr: 0x1000073BC, symSize: 0x28 }
  - { offset: 0x1B2B3, size: 0x8, addend: 0x0, symName: __ZNSt5dequeIiSaIiEE4backEv, symObjAddr: 0x4760, symBinAddr: 0x100007388, symSize: 0x34 }
  - { offset: 0x1B2EE, size: 0x8, addend: 0x0, symName: __ZNKSt5dequeIiSaIiEE5emptyEv, symObjAddr: 0x4730, symBinAddr: 0x100007358, symSize: 0x30 }
  - { offset: 0x1B318, size: 0x8, addend: 0x0, symName: __ZNSt5dequeIiSaIiEE9push_backERKi, symObjAddr: 0x4664, symBinAddr: 0x10000728C, symSize: 0xCC }
  - { offset: 0x1B3BF, size: 0x8, addend: 0x0, symName: __ZNSt5dequeIiSaIiEE15_M_destroy_dataESt15_Deque_iteratorIiRiPiES5_RKS0_, symObjAddr: 0x4644, symBinAddr: 0x10000726C, symSize: 0x20 }
  - { offset: 0x1B41A, size: 0x8, addend: 0x0, symName: __ZNSt11_Deque_baseIiSaIiEE19_M_get_Tp_allocatorEv, symObjAddr: 0x4630, symBinAddr: 0x100007258, symSize: 0x14 }
  - { offset: 0x1B444, size: 0x8, addend: 0x0, symName: __ZNSt5dequeIiSaIiEE3endEv, symObjAddr: 0x45F8, symBinAddr: 0x100007220, symSize: 0x38 }
  - { offset: 0x1B46E, size: 0x8, addend: 0x0, symName: __ZNSt5dequeIiSaIiEE5beginEv, symObjAddr: 0x45C0, symBinAddr: 0x1000071E8, symSize: 0x38 }
  - { offset: 0x1B4BC, size: 0x8, addend: 0x0, symName: __ZNSt11_Deque_baseIiSaIiEED2Ev, symObjAddr: 0x4554, symBinAddr: 0x10000717C, symSize: 0x6C }
  - { offset: 0x1B4FC, size: 0x8, addend: 0x0, symName: __ZNSt11_Deque_baseIiSaIiEEC2Ev, symObjAddr: 0x450C, symBinAddr: 0x100007134, symSize: 0x48 }
  - { offset: 0x1B54A, size: 0x8, addend: 0x0, symName: __ZNSt11_Deque_baseIiSaIiEE11_Deque_implD1Ev, symObjAddr: 0x44E0, symBinAddr: 0x100007108, symSize: 0x2C }
  - { offset: 0x1B594, size: 0x8, addend: 0x0, symName: __ZNSt7__cxx114listIiSaIiEE14_M_move_assignEOS2_St17integral_constantIbLb1EE, symObjAddr: 0x4470, symBinAddr: 0x100007098, symSize: 0x70 }
  - { offset: 0x1B607, size: 0x8, addend: 0x0, symName: __ZSt4moveIRNSt7__cxx114listIiSaIiEEEEONSt16remove_referenceIT_E4typeEOS6_, symObjAddr: 0x445C, symBinAddr: 0x100007084, symSize: 0x14 }
  - { offset: 0x1B63D, size: 0x8, addend: 0x0, symName: __ZNSt7__cxx1110_List_baseIiSaIiEE8_M_clearEv, symObjAddr: 0x43C8, symBinAddr: 0x100006FF0, symSize: 0x94 }
  - { offset: 0x1B716, size: 0x8, addend: 0x0, symName: __ZNSt7__cxx114listIiSaIiEE22_M_initialize_dispatchIN9__gnu_cxx17__normal_iteratorIPiSt6vectorIiS1_EEEEEvT_SA_St12__false_type, symObjAddr: 0x4368, symBinAddr: 0x100006F90, symSize: 0x60 }
  - { offset: 0x1B79C, size: 0x8, addend: 0x0, symName: __ZNSt7__cxx1110_List_baseIiSaIiEEC2EOSaISt10_List_nodeIiEE, symObjAddr: 0x432C, symBinAddr: 0x100006F54, symSize: 0x3C }
  - { offset: 0x1B84D, size: 0x8, addend: 0x0, symName: __ZN9__gnu_cxx17__normal_iteratorIPiSt6vectorIiSaIiEEEC1ERKS1_, symObjAddr: 0x4304, symBinAddr: 0x100006F2C, symSize: 0x28 }
  - { offset: 0x1B87C, size: 0x8, addend: 0x0, symName: __ZNSt8__detail9_Map_baseIiSt4pairIKiNSt7__cxx114listIiSaIiEEEESaIS7_ENS_10_Select1stESt8equal_toIiESt4hashIiENS_18_Mod_range_hashingENS_20_Default_ranged_hashENS_20_Prime_rehash_policyENS_17_Hashtable_traitsILb0ELb0ELb1EEELb1EEixERS2_, symObjAddr: 0x41E4, symBinAddr: 0x100006E0C, symSize: 0x120 }
  - { offset: 0x1B982, size: 0x8, addend: 0x0, symName: __ZNSt10_HashtableIiSt4pairIKiNSt7__cxx114listIiSaIiEEEESaIS6_ENSt8__detail10_Select1stESt8equal_toIiESt4hashIiENS8_18_Mod_range_hashingENS8_20_Default_ranged_hashENS8_20_Prime_rehash_policyENS8_17_Hashtable_traitsILb0ELb0ELb1EEEE21_M_deallocate_bucketsEv, symObjAddr: 0x41B0, symBinAddr: 0x100006DD8, symSize: 0x34 }
  - { offset: 0x1B9AC, size: 0x8, addend: 0x0, symName: __ZNSt10_HashtableIiSt4pairIKiNSt7__cxx114listIiSaIiEEEESaIS6_ENSt8__detail10_Select1stESt8equal_toIiESt4hashIiENS8_18_Mod_range_hashingENS8_20_Default_ranged_hashENS8_20_Prime_rehash_policyENS8_17_Hashtable_traitsILb0ELb0ELb1EEEE5clearEv, symObjAddr: 0x4150, symBinAddr: 0x100006D78, symSize: 0x60 }
  - { offset: 0x1B9FA, size: 0x8, addend: 0x0, symName: __ZNSt15__new_allocatorINSt8__detail10_Hash_nodeISt4pairIKiNSt7__cxx114listIiSaIiEEEELb0EEEED2Ev, symObjAddr: 0x413C, symBinAddr: 0x100006D64, symSize: 0x14 }
  - { offset: 0x1BA36, size: 0x8, addend: 0x0, symName: __ZNSt6vectorIiSaIiEE4backEv, symObjAddr: 0x4104, symBinAddr: 0x100006D2C, symSize: 0x38 }
  - { offset: 0x1BA60, size: 0x8, addend: 0x0, symName: __ZNSt6vectorIiSaIiEE17_M_realloc_appendIJRiEEEvDpOT_, symObjAddr: 0x3F48, symBinAddr: 0x100006B70, symSize: 0x1BC }
  - { offset: 0x1BBE4, size: 0x8, addend: 0x0, symName: __ZZNSt6vectorIiSaIiEE17_M_realloc_appendIJRiEEEvDpOT_EN6_GuardC1EPimRS0_, symObjAddr: 0x3EA4, symBinAddr: 0x100006ACC, symSize: 0x44 }
  - { offset: 0x1BC29, size: 0x8, addend: 0x0, symName: __ZZNSt6vectorIiSaIiEE17_M_realloc_appendIJRiEEEvDpOT_EN6_GuardD1Ev, symObjAddr: 0x3EE8, symBinAddr: 0x100006B10, symSize: 0x60 }
  - { offset: 0x1BD62, size: 0x8, addend: 0x0, symName: __ZSt7forwardIRiEOT_RNSt16remove_referenceIS1_E4typeE, symObjAddr: 0x3E90, symBinAddr: 0x100006AB8, symSize: 0x14 }
  - { offset: 0x1BD98, size: 0x8, addend: 0x0, symName: __ZNSt6vectorIiSaIiEE17_M_realloc_appendIJRKiEEEvDpOT_, symObjAddr: 0x3CD4, symBinAddr: 0x1000068FC, symSize: 0x1BC }
  - { offset: 0x1BF1C, size: 0x8, addend: 0x0, symName: __ZZNSt6vectorIiSaIiEE17_M_realloc_appendIJRKiEEEvDpOT_EN6_GuardC1EPimRS0_, symObjAddr: 0x3C30, symBinAddr: 0x100006858, symSize: 0x44 }
  - { offset: 0x1BF61, size: 0x8, addend: 0x0, symName: __ZZNSt6vectorIiSaIiEE17_M_realloc_appendIJRKiEEEvDpOT_EN6_GuardD1Ev, symObjAddr: 0x3C74, symBinAddr: 0x10000689C, symSize: 0x60 }
  - { offset: 0x1C098, size: 0x8, addend: 0x0, symName: __ZNSt6vectorIbSaIbEE5beginEv, symObjAddr: 0x3BE0, symBinAddr: 0x100006808, symSize: 0x50 }
  - { offset: 0x1C0F9, size: 0x8, addend: 0x0, symName: __ZSt22__uninitialized_copy_aIN9__gnu_cxx17__normal_iteratorIPKiSt6vectorIiSaIiEEEEPiiET0_T_SA_S9_RSaIT1_E, symObjAddr: 0x3BB0, symBinAddr: 0x1000067D8, symSize: 0x30 }
  - { offset: 0x1C16D, size: 0x8, addend: 0x0, symName: __ZNSt12_Vector_baseIiSaIiEE19_M_get_Tp_allocatorEv, symObjAddr: 0x3B9C, symBinAddr: 0x1000067C4, symSize: 0x14 }
  - { offset: 0x1C197, size: 0x8, addend: 0x0, symName: __ZNKSt6vectorIiSaIiEE3endEv, symObjAddr: 0x3B74, symBinAddr: 0x10000679C, symSize: 0x28 }
  - { offset: 0x1C1C1, size: 0x8, addend: 0x0, symName: __ZNKSt6vectorIiSaIiEE5beginEv, symObjAddr: 0x3B50, symBinAddr: 0x100006778, symSize: 0x24 }
  - { offset: 0x1C221, size: 0x8, addend: 0x0, symName: __ZNSt12_Vector_baseIiSaIiEEC2EmRKS0_, symObjAddr: 0x3AFC, symBinAddr: 0x100006724, symSize: 0x54 }
  - { offset: 0x1C26E, size: 0x8, addend: 0x0, symName: __ZNKSt12_Vector_baseIiSaIiEE19_M_get_Tp_allocatorEv, symObjAddr: 0x3AE8, symBinAddr: 0x100006710, symSize: 0x14 }
  - { offset: 0x1C298, size: 0x8, addend: 0x0, symName: __ZNSt6vectorIbSaIbEE19_M_initialize_valueEb, symObjAddr: 0x3A84, symBinAddr: 0x1000066AC, symSize: 0x64 }
  - { offset: 0x1C2F7, size: 0x8, addend: 0x0, symName: __ZNSt6vectorIbSaIbEE13_M_initializeEm, symObjAddr: 0x39CC, symBinAddr: 0x1000065F4, symSize: 0xB8 }
  - { offset: 0x1C38B, size: 0x8, addend: 0x0, symName: __ZNSt13_Bvector_baseISaIbEED2Ev, symObjAddr: 0x39A4, symBinAddr: 0x1000065CC, symSize: 0x28 }
  - { offset: 0x1C3D9, size: 0x8, addend: 0x0, symName: __ZNSt13_Bvector_baseISaIbEEC2ERKS0_, symObjAddr: 0x3958, symBinAddr: 0x100006580, symSize: 0x4C }
  - { offset: 0x1C49E, size: 0x8, addend: 0x0, symName: __ZNSt13_Bvector_baseISaIbEE13_Bvector_implD1Ev, symObjAddr: 0x392C, symBinAddr: 0x100006554, symSize: 0x2C }
  - { offset: 0x1C50C, size: 0x8, addend: 0x0, symName: __ZNSt15__new_allocatorIbED2Ev, symObjAddr: 0x3918, symBinAddr: 0x100006540, symSize: 0x14 }
  - { offset: 0x1C583, size: 0x8, addend: 0x0, symName: __ZNSt12_Vector_baseISt4pairIiiESaIS1_EE19_M_get_Tp_allocatorEv, symObjAddr: 0x3904, symBinAddr: 0x10000652C, symSize: 0x14 }
  - { offset: 0x1C5AD, size: 0x8, addend: 0x0, symName: __ZNSt6vectorISt4pairIiiESaIS1_EE21_M_default_initializeEm, symObjAddr: 0x38B4, symBinAddr: 0x1000064DC, symSize: 0x50 }
  - { offset: 0x1C60C, size: 0x8, addend: 0x0, symName: __ZNSt12_Vector_baseISt4pairIiiESaIS1_EED2Ev, symObjAddr: 0x3864, symBinAddr: 0x10000648C, symSize: 0x50 }
  - { offset: 0x1C668, size: 0x8, addend: 0x0, symName: __ZNSt12_Vector_baseISt4pairIiiESaIS1_EEC2EmRKS2_, symObjAddr: 0x3810, symBinAddr: 0x100006438, symSize: 0x54 }
  - { offset: 0x1C6C7, size: 0x8, addend: 0x0, symName: __ZNSt12_Vector_baseISt4pairIiiESaIS1_EE12_Vector_implD1Ev, symObjAddr: 0x37E4, symBinAddr: 0x10000640C, symSize: 0x2C }
  - { offset: 0x1C70C, size: 0x8, addend: 0x0, symName: __ZNSt6vectorISt4pairIiiESaIS1_EE17_S_check_init_lenEmRKS2_, symObjAddr: 0x3760, symBinAddr: 0x100006388, symSize: 0x84 }
  - { offset: 0x1C7E6, size: 0x8, addend: 0x0, symName: __ZNSt15__new_allocatorISt4pairIiiEED2Ev, symObjAddr: 0x374C, symBinAddr: 0x100006374, symSize: 0x14 }
  - { offset: 0x1C822, size: 0x8, addend: 0x0, symName: __ZNSt6vectorIiSaIiEE12emplace_backIJiEEERiDpOT_, symObjAddr: 0x3674, symBinAddr: 0x10000629C, symSize: 0xD8 }
  - { offset: 0x1C8D3, size: 0x8, addend: 0x0, symName: __ZSt4moveIRiEONSt16remove_referenceIT_E4typeEOS2_, symObjAddr: 0x3660, symBinAddr: 0x100006288, symSize: 0x14 }
  - { offset: 0x1C909, size: 0x8, addend: 0x0, symName: __ZNSt6vectorI6VertexSaIS0_EE15_M_erase_at_endEPS0_, symObjAddr: 0x35CC, symBinAddr: 0x1000061F4, symSize: 0x94 }
  - { offset: 0x1C99E, size: 0x8, addend: 0x0, symName: __ZNSt6vectorI6VertexSaIS0_EE17_M_default_appendEm, symObjAddr: 0x3378, symBinAddr: 0x100005FA0, symSize: 0x254 }
  - { offset: 0x1CB3F, size: 0x8, addend: 0x0, symName: __ZZNSt6vectorI6VertexSaIS0_EE17_M_default_appendEmEN6_GuardC1EPS0_mRS1_, symObjAddr: 0x32D4, symBinAddr: 0x100005EFC, symSize: 0x44 }
  - { offset: 0x1CB84, size: 0x8, addend: 0x0, symName: __ZZNSt6vectorI6VertexSaIS0_EE17_M_default_appendEmEN6_GuardD1Ev, symObjAddr: 0x3318, symBinAddr: 0x100005F40, symSize: 0x60 }
  - { offset: 0x1CBE2, size: 0x8, addend: 0x0, symName: __ZNSt12_Vector_baseIiSaIiEE13_M_deallocateEPim, symObjAddr: 0x327C, symBinAddr: 0x100005EA4, symSize: 0x58 }
  - { offset: 0x1CC88, size: 0x8, addend: 0x0, symName: __ZNSt15__new_allocatorIiED2Ev, symObjAddr: 0x3268, symBinAddr: 0x100005E90, symSize: 0x14 }
  - { offset: 0x1CCC8, size: 0x8, addend: 0x0, symName: __ZNSt12_Vector_baseIiSaIiEE17_Vector_impl_dataC2Ev, symObjAddr: 0x323C, symBinAddr: 0x100005E64, symSize: 0x2C }
  - { offset: 0x1CCEE, size: 0x8, addend: 0x0, symName: __ZNSt12_Vector_baseI6VertexSaIS0_EE13_M_deallocateEPS0_m, symObjAddr: 0x31E4, symBinAddr: 0x100005E0C, symSize: 0x58 }
  - { offset: 0x1CD94, size: 0x8, addend: 0x0, symName: __ZNSt15__new_allocatorI6VertexED2Ev, symObjAddr: 0x31D0, symBinAddr: 0x100005DF8, symSize: 0x14 }
  - { offset: 0x1CDD4, size: 0x8, addend: 0x0, symName: __ZNSt12_Vector_baseI6VertexSaIS0_EE17_Vector_impl_dataC2Ev, symObjAddr: 0x31A4, symBinAddr: 0x100005DCC, symSize: 0x2C }
  - { offset: 0x1CE10, size: 0x8, addend: 0x0, symName: __ZNSt7__cxx1112basic_stringIcSt11char_traitsIcESaIcEE12_M_constructIPKcEEvT_S8_St20forward_iterator_tag, symObjAddr: 0x30A4, symBinAddr: 0x100005CCC, symSize: 0x100 }
  - { offset: 0x1CF18, size: 0x8, addend: 0x0, symName: __ZZNSt7__cxx1112basic_stringIcSt11char_traitsIcESaIcEE12_M_constructIPKcEEvT_S8_St20forward_iterator_tagEN6_GuardC1EPS4_, symObjAddr: 0x304C, symBinAddr: 0x100005C74, symSize: 0x24 }
  - { offset: 0x1CF4B, size: 0x8, addend: 0x0, symName: __ZZNSt7__cxx1112basic_stringIcSt11char_traitsIcESaIcEE12_M_constructIPKcEEvT_S8_St20forward_iterator_tagEN6_GuardD1Ev, symObjAddr: 0x3070, symBinAddr: 0x100005C98, symSize: 0x34 }
  - { offset: 0x1D04B, size: 0x8, addend: 0x0, symName: __ZNSt15__new_allocatorIcED2Ev, symObjAddr: 0x3038, symBinAddr: 0x100005C60, symSize: 0x14 }
  - { offset: 0x1D0AF, size: 0x8, addend: 0x0, symName: __ZN9__gnu_cxx11char_traitsIcE2eqERKcS3_, symObjAddr: 0x3008, symBinAddr: 0x100005C30, symSize: 0x30 }
  - { offset: 0x1D133, size: 0x8, addend: 0x0, symName: __ZNSt7__cxx1112basic_stringIcSt11char_traitsIcESaIcEEC1IS3_EEPKcRKS3_, symObjAddr: 0x2F6C, symBinAddr: 0x100005B94, symSize: 0x9C }
  - { offset: 0x1D198, size: 0x8, addend: 0x0, symName: __ZNK9__gnu_cxx17__normal_iteratorIPiSt6vectorIiSaIiEEEdeEv, symObjAddr: 0x2F54, symBinAddr: 0x100005B7C, symSize: 0x18 }
  - { offset: 0x1D1C2, size: 0x8, addend: 0x0, symName: __ZN9__gnu_cxx17__normal_iteratorIPiSt6vectorIiSaIiEEEppEv, symObjAddr: 0x2F2C, symBinAddr: 0x100005B54, symSize: 0x28 }
  - { offset: 0x1D1E8, size: 0x8, addend: 0x0, symName: __ZN9__gnu_cxxneIPiSt6vectorIiSaIiEEEEbRKNS_17__normal_iteratorIT_T0_EESA_, symObjAddr: 0x2EE8, symBinAddr: 0x100005B10, symSize: 0x44 }
  - { offset: 0x1D239, size: 0x8, addend: 0x0, symName: __ZNSt5stackIiSt5dequeIiSaIiEEE3popEv, symObjAddr: 0x2EC8, symBinAddr: 0x100005AF0, symSize: 0x20 }
  - { offset: 0x1D263, size: 0x8, addend: 0x0, symName: __ZNSt7__cxx114listIiSaIiEE6removeERKi, symObjAddr: 0x2DC8, symBinAddr: 0x1000059F0, symSize: 0x100 }
  - { offset: 0x1D31A, size: 0x8, addend: 0x0, symName: __ZNSt7__cxx114listIiSaIiEE9pop_frontEv, symObjAddr: 0x2D9C, symBinAddr: 0x1000059C4, symSize: 0x2C }
  - { offset: 0x1D344, size: 0x8, addend: 0x0, symName: __ZNSt7__cxx114listIiSaIiEE5frontEv, symObjAddr: 0x2D74, symBinAddr: 0x10000599C, symSize: 0x28 }
  - { offset: 0x1D36E, size: 0x8, addend: 0x0, symName: __ZNKSt7__cxx114listIiSaIiEE5emptyEv, symObjAddr: 0x2D4C, symBinAddr: 0x100005974, symSize: 0x28 }
  - { offset: 0x1D398, size: 0x8, addend: 0x0, symName: __ZNSt5stackIiSt5dequeIiSaIiEEE3topEv, symObjAddr: 0x2D30, symBinAddr: 0x100005958, symSize: 0x1C }
  - { offset: 0x1D3C2, size: 0x8, addend: 0x0, symName: __ZNKSt5stackIiSt5dequeIiSaIiEEE5emptyEv, symObjAddr: 0x2D14, symBinAddr: 0x10000593C, symSize: 0x1C }
  - { offset: 0x1D3EC, size: 0x8, addend: 0x0, symName: __ZNSt5stackIiSt5dequeIiSaIiEEE4pushERKi, symObjAddr: 0x2CEC, symBinAddr: 0x100005914, symSize: 0x28 }
  - { offset: 0x1D44B, size: 0x8, addend: 0x0, symName: __ZNSt5dequeIiSaIiEED1Ev, symObjAddr: 0x2C84, symBinAddr: 0x1000058AC, symSize: 0x68 }
  - { offset: 0x1D49A, size: 0x8, addend: 0x0, symName: __ZNSt5stackIiSt5dequeIiSaIiEEEC1IS2_vEEv, symObjAddr: 0x2C48, symBinAddr: 0x100005870, symSize: 0x3C }
  - { offset: 0x1D4E8, size: 0x8, addend: 0x0, symName: __ZNSt5dequeIiSaIiEEC1Ev, symObjAddr: 0x2C28, symBinAddr: 0x100005850, symSize: 0x20 }
  - { offset: 0x1D50E, size: 0x8, addend: 0x0, symName: __ZNSt7__cxx114listIiSaIiEEaSEOS2_, symObjAddr: 0x2BE4, symBinAddr: 0x10000580C, symSize: 0x44 }
  - { offset: 0x1D57E, size: 0x8, addend: 0x0, symName: __ZNSt7__cxx1110_List_baseIiSaIiEED2Ev, symObjAddr: 0x2BBC, symBinAddr: 0x1000057E4, symSize: 0x28 }
  - { offset: 0x1D5CC, size: 0x8, addend: 0x0, symName: __ZNSt7__cxx1110_List_baseIiSaIiEE10_List_implD1Ev, symObjAddr: 0x2B90, symBinAddr: 0x1000057B8, symSize: 0x2C }
  - { offset: 0x1D663, size: 0x8, addend: 0x0, symName: __ZNSt7__cxx114listIiSaIiEEC1IN9__gnu_cxx17__normal_iteratorIPiSt6vectorIiS1_EEEvEET_SA_RKS1_, symObjAddr: 0x2B0C, symBinAddr: 0x100005734, symSize: 0x84 }
  - { offset: 0x1D731, size: 0x8, addend: 0x0, symName: __ZNSt6vectorIiSaIiEE3endEv, symObjAddr: 0x2AE4, symBinAddr: 0x10000570C, symSize: 0x28 }
  - { offset: 0x1D75B, size: 0x8, addend: 0x0, symName: __ZNSt6vectorIiSaIiEE5beginEv, symObjAddr: 0x2AC0, symBinAddr: 0x1000056E8, symSize: 0x24 }
  - { offset: 0x1D785, size: 0x8, addend: 0x0, symName: __ZNSt13unordered_mapIiNSt7__cxx114listIiSaIiEEESt4hashIiESt8equal_toIiESaISt4pairIKiS3_EEEixERS9_, symObjAddr: 0x2A9C, symBinAddr: 0x1000056C4, symSize: 0x24 }
  - { offset: 0x1D7E4, size: 0x8, addend: 0x0, symName: __ZNSt10_HashtableIiSt4pairIKiNSt7__cxx114listIiSaIiEEEESaIS6_ENSt8__detail10_Select1stESt8equal_toIiESt4hashIiENS8_18_Mod_range_hashingENS8_20_Default_ranged_hashENS8_20_Prime_rehash_policyENS8_17_Hashtable_traitsILb0ELb0ELb1EEEED1Ev, symObjAddr: 0x2A6C, symBinAddr: 0x100005694, symSize: 0x30 }
  - { offset: 0x1D844, size: 0x8, addend: 0x0, symName: __ZNSt8__detail21_Hashtable_ebo_helperILi0ESaINS_10_Hash_nodeISt4pairIKiNSt7__cxx114listIiSaIiEEEELb0EEEELb1EEC2Ev, symObjAddr: 0x2A40, symBinAddr: 0x100005668, symSize: 0x2C }
  - { offset: 0x1D8CB, size: 0x8, addend: 0x0, symName: __ZNSt8__detail21_Hashtable_ebo_helperILi0ESt8equal_toIiELb1EEC2Ev, symObjAddr: 0x2A2C, symBinAddr: 0x100005654, symSize: 0x14 }
  - { offset: 0x1D90B, size: 0x8, addend: 0x0, symName: __ZNSt8__detail21_Hashtable_ebo_helperILi1ESt4hashIiELb1EEC2Ev, symObjAddr: 0x2A18, symBinAddr: 0x100005640, symSize: 0x14 }
  - { offset: 0x1D931, size: 0x8, addend: 0x0, symName: __ZNSt6vectorIiSaIiEEixEm, symObjAddr: 0x29F0, symBinAddr: 0x100005618, symSize: 0x28 }
  - { offset: 0x1D96C, size: 0x8, addend: 0x0, symName: __ZNSt6vectorIiSaIiEE12emplace_backIJRiEEES3_DpOT_, symObjAddr: 0x2918, symBinAddr: 0x100005540, symSize: 0xD8 }
  - { offset: 0x1DA1B, size: 0x8, addend: 0x0, symName: __ZNKSt6vectorIiSaIiEE4sizeEv, symObjAddr: 0x28F0, symBinAddr: 0x100005518, symSize: 0x28 }
  - { offset: 0x1DA45, size: 0x8, addend: 0x0, symName: __ZNSt4pairIiiEaSEOS0_, symObjAddr: 0x28A8, symBinAddr: 0x1000054D0, symSize: 0x48 }
  - { offset: 0x1DAC8, size: 0x8, addend: 0x0, symName: __ZNSt4pairIiiEC1IRiS2_Lb1EEEOT_OT0_, symObjAddr: 0x2860, symBinAddr: 0x100005488, symSize: 0x48 }
  - { offset: 0x1DB12, size: 0x8, addend: 0x0, symName: __ZNSt6vectorIiSaIiEE9push_backERKi, symObjAddr: 0x2798, symBinAddr: 0x1000053C0, symSize: 0xC8 }
  - { offset: 0x1DBB9, size: 0x8, addend: 0x0, symName: __ZNSt6vectorIbSaIbEEixEm, symObjAddr: 0x2768, symBinAddr: 0x100005390, symSize: 0x30 }
  - { offset: 0x1DC18, size: 0x8, addend: 0x0, symName: __ZNSt6vectorIiSaIiEED1Ev, symObjAddr: 0x270C, symBinAddr: 0x100005334, symSize: 0x5C }
  - { offset: 0x1DC9C, size: 0x8, addend: 0x0, symName: __ZNSt6vectorIiSaIiEEC1ERKS1_, symObjAddr: 0x25F8, symBinAddr: 0x100005220, symSize: 0x114 }
  - { offset: 0x1DDAF, size: 0x8, addend: 0x0, symName: __ZNSt6vectorISt4pairIiiESaIS1_EEixEm, symObjAddr: 0x25D0, symBinAddr: 0x1000051F8, symSize: 0x28 }
  - { offset: 0x1DE0E, size: 0x8, addend: 0x0, symName: __ZNSt6vectorIbSaIbEED1Ev, symObjAddr: 0x25B0, symBinAddr: 0x1000051D8, symSize: 0x20 }
  - { offset: 0x1DE78, size: 0x8, addend: 0x0, symName: __ZNSt6vectorIbSaIbEEC1EmRKbRKS0_, symObjAddr: 0x2544, symBinAddr: 0x10000516C, symSize: 0x6C }
  - { offset: 0x1DF13, size: 0x8, addend: 0x0, symName: __ZNSt6vectorISt4pairIiiESaIS1_EED1Ev, symObjAddr: 0x24E8, symBinAddr: 0x100005110, symSize: 0x5C }
  - { offset: 0x1DFA5, size: 0x8, addend: 0x0, symName: __ZNSt6vectorISt4pairIiiESaIS1_EEC1EmRKS2_, symObjAddr: 0x2480, symBinAddr: 0x1000050A8, symSize: 0x68 }
  - { offset: 0x1E013, size: 0x8, addend: 0x0, symName: __ZNSt6vectorI6VertexSaIS0_EEixEm, symObjAddr: 0x244C, symBinAddr: 0x100005074, symSize: 0x34 }
  - { offset: 0x1E04E, size: 0x8, addend: 0x0, symName: __ZNSt6vectorIiSaIiEE9push_backEOi, symObjAddr: 0x241C, symBinAddr: 0x100005044, symSize: 0x30 }
  - { offset: 0x1E089, size: 0x8, addend: 0x0, symName: __ZNSt6vectorI6VertexSaIS0_EE6resizeEm, symObjAddr: 0x2360, symBinAddr: 0x100004F88, symSize: 0xBC }
  - { offset: 0x1E0C4, size: 0x8, addend: 0x0, symName: __ZNKSt6vectorI6VertexSaIS0_EE4sizeEv, symObjAddr: 0x232C, symBinAddr: 0x100004F54, symSize: 0x34 }
  - { offset: 0x1E0F6, size: 0x8, addend: 0x0, symName: __ZSteqIcSt11char_traitsIcESaIcEEbRKNSt7__cxx1112basic_stringIT_T0_T1_EEPKS5_, symObjAddr: 0x22B8, symBinAddr: 0x100004EE0, symSize: 0x74 }
  - { offset: 0x1E17A, size: 0x8, addend: 0x0, symName: __ZNSt12_Vector_baseIiSaIiEED2Ev, symObjAddr: 0x2268, symBinAddr: 0x100004E90, symSize: 0x50 }
  - { offset: 0x1E1DA, size: 0x8, addend: 0x0, symName: __ZNSt12_Vector_baseIiSaIiEE12_Vector_implC1Ev, symObjAddr: 0x2230, symBinAddr: 0x100004E58, symSize: 0x38 }
  - { offset: 0x1E26A, size: 0x8, addend: 0x0, symName: __ZNSt12_Vector_baseI6VertexSaIS0_EED2Ev, symObjAddr: 0x21D4, symBinAddr: 0x100004DFC, symSize: 0x5C }
  - { offset: 0x1E2CA, size: 0x8, addend: 0x0, symName: __ZNSt12_Vector_baseI6VertexSaIS0_EE12_Vector_implC1Ev, symObjAddr: 0x219C, symBinAddr: 0x100004DC4, symSize: 0x38 }
  - { offset: 0x1E393, size: 0x8, addend: 0x0, symName: __ZNSt7__cxx1112basic_stringIcSt11char_traitsIcESaIcEE12_Alloc_hiderD1Ev, symObjAddr: 0x2170, symBinAddr: 0x100004D98, symSize: 0x2C }
  - { offset: 0x1E3D8, size: 0x8, addend: 0x0, symName: __ZN9__gnu_cxx11char_traitsIcE6lengthEPKc, symObjAddr: 0x2118, symBinAddr: 0x100004D40, symSize: 0x58 }
  - { offset: 0x1E417, size: 0x8, addend: 0x0, symName: __ZSt7forwardIiEOT_RNSt16remove_referenceIS0_E4typeE, symObjAddr: 0x2104, symBinAddr: 0x100004D2C, symSize: 0x14 }
  - { offset: 0x1E449, size: 0x8, addend: 0x0, symName: __ZSt3maxImERKT_S2_S2_, symObjAddr: 0x20CC, symBinAddr: 0x100004CF4, symSize: 0x38 }
  - { offset: 0x1E494, size: 0x8, addend: 0x0, symName: _main, symObjAddr: 0x1DE0, symBinAddr: 0x100004A08, symSize: 0x2EC }
  - { offset: 0x1E608, size: 0x8, addend: 0x0, symName: __Z8hamiltoni, symObjAddr: 0x1AE0, symBinAddr: 0x100004708, symSize: 0x300 }
  - { offset: 0x1E742, size: 0x8, addend: 0x0, symName: __Z10hierholzeri, symObjAddr: 0x1898, symBinAddr: 0x1000044C0, symSize: 0x248 }
  - { offset: 0x1E88B, size: 0x8, addend: 0x0, symName: __ZNSt5stackIiSt5dequeIiSaIiEEED1Ev, symObjAddr: 0x1878, symBinAddr: 0x1000044A0, symSize: 0x20 }
  - { offset: 0x1E8D5, size: 0x8, addend: 0x0, symName: __ZNSt7__cxx114listIiSaIiEED1Ev, symObjAddr: 0x1858, symBinAddr: 0x100004480, symSize: 0x20 }
  - { offset: 0x1E915, size: 0x8, addend: 0x0, symName: __ZNSt13unordered_mapIiNSt7__cxx114listIiSaIiEEESt4hashIiESt8equal_toIiESaISt4pairIKiS3_EEEC1Ev, symObjAddr: 0x1838, symBinAddr: 0x100004460, symSize: 0x20 }
  - { offset: 0x1E955, size: 0x8, addend: 0x0, symName: __ZNSt10_HashtableIiSt4pairIKiNSt7__cxx114listIiSaIiEEEESaIS6_ENSt8__detail10_Select1stESt8equal_toIiESt4hashIiENS8_18_Mod_range_hashingENS8_20_Default_ranged_hashENS8_20_Prime_rehash_policyENS8_17_Hashtable_traitsILb0ELb0ELb1EEEEC1Ev, symObjAddr: 0x17C8, symBinAddr: 0x1000043F0, symSize: 0x70 }
  - { offset: 0x1E9A3, size: 0x8, addend: 0x0, symName: __ZNSt8__detail16_Hashtable_allocISaINS_10_Hash_nodeISt4pairIKiNSt7__cxx114listIiSaIiEEEELb0EEEEED2Ev, symObjAddr: 0x17A8, symBinAddr: 0x1000043D0, symSize: 0x20 }
  - { offset: 0x1E9E3, size: 0x8, addend: 0x0, symName: __ZNSt8__detail16_Hashtable_allocISaINS_10_Hash_nodeISt4pairIKiNSt7__cxx114listIiSaIiEEEELb0EEEEEC2Ev, symObjAddr: 0x1788, symBinAddr: 0x1000043B0, symSize: 0x20 }
  - { offset: 0x1EA31, size: 0x8, addend: 0x0, symName: __ZNSt8__detail21_Hashtable_ebo_helperILi0ESaINS_10_Hash_nodeISt4pairIKiNSt7__cxx114listIiSaIiEEEELb0EEEELb1EED2Ev, symObjAddr: 0x175C, symBinAddr: 0x100004384, symSize: 0x2C }
  - { offset: 0x1EA95, size: 0x8, addend: 0x0, symName: __ZNSt8__detail15_Hashtable_baseIiSt4pairIKiNSt7__cxx114listIiSaIiEEEENS_10_Select1stESt8equal_toIiESt4hashIiENS_18_Mod_range_hashingENS_20_Default_ranged_hashENS_17_Hashtable_traitsILb0ELb0ELb1EEEEC2Ev, symObjAddr: 0x1734, symBinAddr: 0x10000435C, symSize: 0x28 }
  - { offset: 0x1EAD5, size: 0x8, addend: 0x0, symName: __ZNSt8__detail15_Hash_code_baseIiSt4pairIKiNSt7__cxx114listIiSaIiEEEENS_10_Select1stESt4hashIiENS_18_Mod_range_hashingENS_20_Default_ranged_hashELb0EEC2Ev, symObjAddr: 0x1714, symBinAddr: 0x10000433C, symSize: 0x20 }
  - { offset: 0x1EAFE, size: 0x8, addend: 0x0, symName: __Z16perfect_matchingv, symObjAddr: 0x1380, symBinAddr: 0x100003FA8, symSize: 0x394 }
  - { offset: 0x1ECA5, size: 0x8, addend: 0x0, symName: __Z3MSTi, symObjAddr: 0xE4C, symBinAddr: 0x100003A74, symSize: 0x534 }
  - { offset: 0x1EEDB, size: 0x8, addend: 0x0, symName: __ZN6VertexD1Ev, symObjAddr: 0xE28, symBinAddr: 0x100003A50, symSize: 0x24 }
  - { offset: 0x1EF23, size: 0x8, addend: 0x0, symName: __ZN6VertexC1ERKS_, symObjAddr: 0xDD0, symBinAddr: 0x1000039F8, symSize: 0x58 }
  - { offset: 0x1EF59, size: 0x8, addend: 0x0, symName: __Z8distance6VertexS_, symObjAddr: 0xD58, symBinAddr: 0x100003980, symSize: 0x78 }
  - { offset: 0x1EFCB, size: 0x8, addend: 0x0, symName: __Z13read_tsp_fileRKNSt7__cxx1112basic_stringIcSt11char_traitsIcESaIcEEE, symObjAddr: 0xAA8, symBinAddr: 0x1000036D0, symSize: 0x2B0 }
  - { offset: 0x1F069, size: 0x8, addend: 0x0, symName: __Z16read_answer_fileRKNSt7__cxx1112basic_stringIcSt11char_traitsIcESaIcEEE, symObjAddr: 0x8B8, symBinAddr: 0x1000034E0, symSize: 0x1F0 }
  - { offset: 0x1F0FC, size: 0x8, addend: 0x0, symName: __ZNSt6vectorIiSaIiEEC1Ev, symObjAddr: 0x898, symBinAddr: 0x1000034C0, symSize: 0x20 }
  - { offset: 0x1F13C, size: 0x8, addend: 0x0, symName: __ZNSt12_Vector_baseIiSaIiEEC2Ev, symObjAddr: 0x878, symBinAddr: 0x1000034A0, symSize: 0x20 }
  - { offset: 0x1F189, size: 0x8, addend: 0x0, symName: __ZNSt12_Vector_baseIiSaIiEE12_Vector_implD1Ev, symObjAddr: 0x84C, symBinAddr: 0x100003474, symSize: 0x2C }
  - { offset: 0x1F1EC, size: 0x8, addend: 0x0, symName: __ZNSt6vectorI6VertexSaIS0_EEC1Ev, symObjAddr: 0x82C, symBinAddr: 0x100003454, symSize: 0x20 }
  - { offset: 0x1F22C, size: 0x8, addend: 0x0, symName: __ZNSt12_Vector_baseI6VertexSaIS0_EEC2Ev, symObjAddr: 0x80C, symBinAddr: 0x100003434, symSize: 0x20 }
  - { offset: 0x1F279, size: 0x8, addend: 0x0, symName: __ZNSt12_Vector_baseI6VertexSaIS0_EE12_Vector_implD1Ev, symObjAddr: 0x7E0, symBinAddr: 0x100003408, symSize: 0x2C }
  - { offset: 0x1F2BE, size: 0x8, addend: 0x0, symName: __ZNSt11char_traitsIcE6lengthEPKc, symObjAddr: 0x7A4, symBinAddr: 0x1000033CC, symSize: 0x3C }
  - { offset: 0x1F302, size: 0x8, addend: 0x0, symName: __ZNSt11char_traitsIcE7compareEPKcS2_m, symObjAddr: 0x6B4, symBinAddr: 0x1000032DC, symSize: 0xF0 }
  - { offset: 0x1F38C, size: 0x8, addend: 0x0, symName: __ZNSt11char_traitsIcE2ltERKcS2_, symObjAddr: 0x67C, symBinAddr: 0x1000032A4, symSize: 0x38 }
  - { offset: 0x1F3CB, size: 0x8, addend: 0x0, symName: __ZNSt8__detail17_List_node_header7_M_baseEv, symObjAddr: 0x668, symBinAddr: 0x100003290, symSize: 0x14 }
  - { offset: 0x1F3F5, size: 0x8, addend: 0x0, symName: __ZNSt8__detail17_List_node_header7_M_initEv, symObjAddr: 0x630, symBinAddr: 0x100003258, symSize: 0x38 }
  - { offset: 0x1F41F, size: 0x8, addend: 0x0, symName: __ZNSt8__detail17_List_node_header13_M_move_nodesEOS0_, symObjAddr: 0x584, symBinAddr: 0x1000031AC, symSize: 0xAC }
  - { offset: 0x1F4A6, size: 0x8, addend: 0x0, symName: __ZNSt8__detail17_List_node_headerC1Ev, symObjAddr: 0x564, symBinAddr: 0x10000318C, symSize: 0x20 }
  - { offset: 0x1F4C8, size: 0x8, addend: 0x0, symName: __ZSt3minImERKT_S2_S2_, symObjAddr: 0x52C, symBinAddr: 0x100003154, symSize: 0x38 }
  - { offset: 0x1F50E, size: 0x8, addend: 0x0, symName: __ZNSt8__detail20_Prime_rehash_policy8_M_resetEm, symObjAddr: 0x508, symBinAddr: 0x100003130, symSize: 0x24 }
  - { offset: 0x1F549, size: 0x8, addend: 0x0, symName: __ZNKSt8__detail20_Prime_rehash_policy8_M_stateEv, symObjAddr: 0x4F0, symBinAddr: 0x100003118, symSize: 0x18 }
  - { offset: 0x1F59B, size: 0x8, addend: 0x0, symName: __ZNSt8__detail20_Prime_rehash_policyC1Ef, symObjAddr: 0x4C4, symBinAddr: 0x1000030EC, symSize: 0x2C }
  - { offset: 0x1F5CA, size: 0x8, addend: 0x0, symName: __ZNKSt8__detail18_Mod_range_hashingclEmm, symObjAddr: 0x494, symBinAddr: 0x1000030BC, symSize: 0x30 }
  - { offset: 0x1F630, size: 0x8, addend: 0x0, symName: __ZNSt8__detail15_Hash_node_baseC1Ev, symObjAddr: 0x478, symBinAddr: 0x1000030A0, symSize: 0x1C }
  - { offset: 0x1F65A, size: 0x8, addend: 0x0, symName: __ZNSt8__detail15_Hash_node_baseC2Ev, symObjAddr: 0x45C, symBinAddr: 0x100003084, symSize: 0x1C }
  - { offset: 0x1F67C, size: 0x8, addend: 0x0, symName: __ZSt16__deque_buf_sizem, symObjAddr: 0x42C, symBinAddr: 0x100003054, symSize: 0x30 }
  - { offset: 0x1F6A5, size: 0x8, addend: 0x0, symName: __ZSt16__fill_bvector_nPmmb, symObjAddr: 0x3D4, symBinAddr: 0x100002FFC, symSize: 0x58 }
  - { offset: 0x1F6F7, size: 0x8, addend: 0x0, symName: __ZStplRKSt13_Bit_iteratorl, symObjAddr: 0x37C, symBinAddr: 0x100002FA4, symSize: 0x58 }
  - { offset: 0x1F747, size: 0x8, addend: 0x0, symName: __ZNKSt13_Bit_iteratorixEl, symObjAddr: 0x34C, symBinAddr: 0x100002F74, symSize: 0x30 }
  - { offset: 0x1F782, size: 0x8, addend: 0x0, symName: __ZNSt13_Bit_iteratorpLEl, symObjAddr: 0x324, symBinAddr: 0x100002F4C, symSize: 0x28 }
  - { offset: 0x1F7BD, size: 0x8, addend: 0x0, symName: __ZNKSt13_Bit_iteratordeEv, symObjAddr: 0x2BC, symBinAddr: 0x100002EE4, symSize: 0x68 }
  - { offset: 0x1F84A, size: 0x8, addend: 0x0, symName: __ZNSt13_Bit_iteratorC1EPmj, symObjAddr: 0x28C, symBinAddr: 0x100002EB4, symSize: 0x30 }
  - { offset: 0x1F89C, size: 0x8, addend: 0x0, symName: __ZNSt13_Bit_iteratorC1Ev, symObjAddr: 0x264, symBinAddr: 0x100002E8C, symSize: 0x28 }
  - { offset: 0x1F8C2, size: 0x8, addend: 0x0, symName: __ZNSt18_Bit_iterator_base7_M_incrEl, symObjAddr: 0x18C, symBinAddr: 0x100002DB4, symSize: 0xD8 }
  - { offset: 0x1F96C, size: 0x8, addend: 0x0, symName: __ZNSt18_Bit_iterator_baseC2EPmj, symObjAddr: 0x158, symBinAddr: 0x100002D80, symSize: 0x34 }
  - { offset: 0x1F9C7, size: 0x8, addend: 0x0, symName: __ZNSt14_Bit_referenceaSERKS_, symObjAddr: 0x12C, symBinAddr: 0x100002D54, symSize: 0x2C }
  - { offset: 0x1FA01, size: 0x8, addend: 0x0, symName: __ZNSt14_Bit_referenceaSEb, symObjAddr: 0xB0, symBinAddr: 0x100002CD8, symSize: 0x7C }
  - { offset: 0x1FA3B, size: 0x8, addend: 0x0, symName: __ZNKSt14_Bit_referencecvbEv, symObjAddr: 0x7C, symBinAddr: 0x100002CA4, symSize: 0x34 }
  - { offset: 0x1FA99, size: 0x8, addend: 0x0, symName: __ZNSt14_Bit_referenceC1EPmm, symObjAddr: 0x48, symBinAddr: 0x100002C70, symSize: 0x34 }
  - { offset: 0x1FAD1, size: 0x8, addend: 0x0, symName: __ZNKSt4hashIiEclEi, symObjAddr: 0x30, symBinAddr: 0x100002C58, symSize: 0x18 }
  - { offset: 0x1FB0E, size: 0x8, addend: 0x0, symName: __ZdlPvS_, symObjAddr: 0x18, symBinAddr: 0x100002C40, symSize: 0x18 }
  - { offset: 0x1FB44, size: 0x8, addend: 0x0, symName: __ZnwmPv, symObjAddr: 0x0, symBinAddr: 0x100002C28, symSize: 0x18 }
...
